   1               		.file	"menu.c"
   2               	__SP_H__ = 0x3e
   3               	__SP_L__ = 0x3d
   4               	__SREG__ = 0x3f
   5               	__tmp_reg__ = 0
   6               	__zero_reg__ = 1
   8               		.text
   9               	.Ltext0:
 128               		.section	.text.n_putchar,"ax",@progbits
 131               	.global	n_putchar
 133               	n_putchar:
   1:menu.c        **** /*
   2:menu.c        ****  * menu.c
   3:menu.c        ****  *
   4:menu.c        ****  * Created: 14.07.2017 0:36:15
   5:menu.c        ****  *  Author: integrator.sb@gmail.com
   6:menu.c        ****  */ 
   7:menu.c        **** #include <avr/io.h>
   8:menu.c        **** #include <avr/pgmspace.h>
   9:menu.c        **** #include <stdio.h>
  10:menu.c        **** #include "suart.h"
  11:menu.c        **** #include "menu.h"
  12:menu.c        **** #include "hd44780.h"
  13:menu.c        **** 
  14:menu.c        **** 
  15:menu.c        **** gen_t generator;
  16:menu.c        **** 
  17:menu.c        **** void n_putchar(char c)
  18:menu.c        **** {
 135               	.LM0:
 136               	.LFBB1:
 137 0000 CF93      		push r28
 138               	/* prologue: function */
 139               	/* frame size = 0 */
 140               	/* stack size = 1 */
 141               	.L__stack_usage = 1
 142 0002 C82F      		mov r28,r24
  19:menu.c        **** 	
  20:menu.c        **** 	if(c == '\r')
 144               	.LM1:
 145 0004 8D30      		cpi r24,lo8(13)
 146 0006 01F4      		brne .L2
  21:menu.c        **** 	{
  22:menu.c        **** 		lcd_clrscr();
 148               	.LM2:
 149 0008 00D0      		rcall lcd_clrscr
 150 000a 00C0      		rjmp .L3
 151               	.L2:
  23:menu.c        **** 		//lcd_home();
  24:menu.c        **** 	}
  25:menu.c        **** 	else if(c == '\n')
 153               	.LM3:
 154 000c 8A30      		cpi r24,lo8(10)
 155 000e 01F4      		brne .L4
  26:menu.c        **** 	{
  27:menu.c        **** 
  28:menu.c        **** 		lcd_goto(0x40);
 157               	.LM4:
 158 0010 80E4      		ldi r24,lo8(64)
 159 0012 00D0      		rcall lcd_goto
  29:menu.c        **** 		#ifdef USE_SW_UART
  30:menu.c        **** 		c = ' ';
 161               	.LM5:
 162 0014 C0E2      		ldi r28,lo8(32)
 163 0016 00C0      		rjmp .L3
 164               	.L4:
  31:menu.c        **** 		#endif
  32:menu.c        **** 	}
  33:menu.c        **** 	else
  34:menu.c        **** 	{
  35:menu.c        **** 		lcd_putc(c);
 166               	.LM6:
 167 0018 00D0      		rcall lcd_putc
 168               	.L3:
  36:menu.c        **** 	}
  37:menu.c        **** 	#ifdef USE_SW_UART
  38:menu.c        **** 		SerialPutChar(c);
 170               	.LM7:
 171 001a 8C2F      		mov r24,r28
 172               	/* epilogue start */
  39:menu.c        **** 	#endif
  40:menu.c        **** 	//return 0;
  41:menu.c        **** }
 174               	.LM8:
 175 001c CF91      		pop r28
  38:menu.c        **** 	#endif
 177               	.LM9:
 178 001e 00C0      		rjmp SerialPutChar
 180               	.Lscope1:
 181               		.section	.text.nnl_puts_P,"ax",@progbits
 184               	.global	nnl_puts_P
 186               	nnl_puts_P:
  42:menu.c        **** 
  43:menu.c        **** void nnl_puts_P(const char* s)
  44:menu.c        **** {
 188               	.LM10:
 189               	.LFBB2:
 190 0000 CF93      		push r28
 191 0002 DF93      		push r29
 192               	/* prologue: function */
 193               	/* frame size = 0 */
 194               	/* stack size = 2 */
 195               	.L__stack_usage = 2
 196 0004 FC01      		movw r30,r24
 197               	.L7:
 198               	.LBB8:
  45:menu.c        **** 	char c;
  46:menu.c        **** 	while((c = pgm_read_byte(s++)) != 0)
 200               	.LM11:
 201               	/* #APP */
 202               	 ;  46 "menu.c" 1
 203 0006 8491      		lpm r24, Z
 204               		
 205               	 ;  0 "" 2
 206               	/* #NOAPP */
 207 0008 EF01      		movw r28,r30
 208 000a 2196      		adiw r28,1
 209               	.LBE8:
 210 000c 8823      		tst r24
 211 000e 01F0      		breq .L9
  47:menu.c        **** 	{
  48:menu.c        **** 		n_putchar(c);
 213               	.LM12:
 214 0010 00D0      		rcall n_putchar
 215 0012 FE01      		movw r30,r28
 216 0014 00C0      		rjmp .L7
 217               	.L9:
 218               	/* epilogue start */
  49:menu.c        **** 	}
  50:menu.c        **** }
 220               	.LM13:
 221 0016 DF91      		pop r29
 222 0018 CF91      		pop r28
 223 001a 0895      		ret
 228               	.Lscope2:
 229               		.section	.text.btnCheckAll,"ax",@progbits
 231               	.global	btnCheckAll
 233               	btnCheckAll:
  51:menu.c        **** 
  52:menu.c        **** 
  53:menu.c        **** 
  54:menu.c        **** uint8_t btnCheckAll()
  55:menu.c        **** {
 235               	.LM14:
 236               	.LFBB3:
 237               	/* prologue: function */
 238               	/* frame size = 0 */
 239               	/* stack size = 0 */
 240               	.L__stack_usage = 0
 242               	.LM15:
 243 0000 88E0      		ldi r24,lo8(8)
  56:menu.c        **** 	uint8_t i, msk;
  57:menu.c        **** 	
  58:menu.c        **** 	msk = 1;
 245               	.LM16:
 246 0002 91E0      		ldi r25,lo8(1)
 247               	.L13:
  59:menu.c        **** 	
  60:menu.c        **** 	for(i = 0; i < 8; i++)
  61:menu.c        **** 	{
  62:menu.c        **** 		if(BTN_MASK & msk)
 249               	.LM17:
 250 0004 292F      		mov r18,r25
 251 0006 2F71      		andi r18,lo8(31)
 252 0008 01F0      		breq .L11
  63:menu.c        **** 		{
  64:menu.c        **** 			if(btnCheck(msk))
 254               	.LM18:
 255 000a 23B3      		in r18,0x13
 256 000c 2923      		and r18,r25
 257 000e 01F0      		breq .L14
 258               	.L11:
  65:menu.c        **** 			return msk;
  66:menu.c        **** 		}
  67:menu.c        **** 		msk = msk<<1;
 260               	.LM19:
 261 0010 990F      		lsl r25
 262 0012 8150      		subi r24,lo8(-(-1))
  60:menu.c        **** 	{
 264               	.LM20:
 265 0014 01F4      		brne .L13
 266 0016 0895      		ret
 267               	.L14:
 268 0018 892F      		mov r24,r25
  68:menu.c        **** 	}
  69:menu.c        **** 	return 0;
  70:menu.c        **** }
 270               	.LM21:
 271 001a 0895      		ret
 276               	.Lscope3:
 277               		.section	.text.btn_wait,"ax",@progbits
 279               	.global	btn_wait
 281               	btn_wait:
  71:menu.c        **** 
  72:menu.c        **** 
  73:menu.c        **** uint8_t btn_wait()
  74:menu.c        **** {
 283               	.LM22:
 284               	.LFBB4:
 285 0000 EF92      		push r14
 286 0002 FF92      		push r15
 287 0004 0F93      		push r16
 288 0006 1F93      		push r17
 289 0008 CF93      		push r28
 290 000a DF93      		push r29
 291               	/* prologue: function */
 292               	/* frame size = 0 */
 293               	/* stack size = 6 */
 294               	.L__stack_usage = 6
  75:menu.c        **** 	
  76:menu.c        **** 	static uint8_t st = 0, msk=0, c = 0;;
  77:menu.c        **** 	uint8_t d, p;
  78:menu.c        **** 	
  79:menu.c        **** 	p = BTN_PORT;
 296               	.LM23:
 297 000c C5B3      		in r28,0x15
  80:menu.c        **** 	d = BTN_DDR;
 299               	.LM24:
 300 000e D4B3      		in r29,0x14
  81:menu.c        **** 	
  82:menu.c        **** 	BTN_DDR &= ~(BTN_MASK);	
 302               	.LM25:
 303 0010 84B3      		in r24,0x14
 304 0012 807E      		andi r24,lo8(-32)
 305 0014 84BB      		out 0x14,r24
  83:menu.c        **** 	//_delay_ms(2);
  84:menu.c        **** 	
  85:menu.c        **** 	#ifdef SYM
  86:menu.c        **** 	BTN_PORT &= ~(BTN_MASK);	
  87:menu.c        **** 	#else
  88:menu.c        **** 	BTN_PORT |= BTN_MASK;
 307               	.LM26:
 308 0016 85B3      		in r24,0x15
 309 0018 8F61      		ori r24,lo8(31)
 310 001a 85BB      		out 0x15,r24
 311               	.LBB9:
 312               	.LBB10:
 314               	.Ltext1:
   1:c:\program files (x86)\atmel\studio 7\7.0\toolchain\avr8\avr8-gnu-toolchain\avr\include\util\delay.h **** /* Copyright (c) 2002, Marek Michalkiewicz
   2:c:\program files (x86)\atmel\studio 7\7.0\toolchain\avr8\avr8-gnu-toolchain\avr\include\util\delay.h ****    Copyright (c) 2004,2005,2007 Joerg Wunsch
   3:c:\program files (x86)\atmel\studio 7\7.0\toolchain\avr8\avr8-gnu-toolchain\avr\include\util\delay.h ****    Copyright (c) 2007  Florin-Viorel Petrov
   4:c:\program files (x86)\atmel\studio 7\7.0\toolchain\avr8\avr8-gnu-toolchain\avr\include\util\delay.h ****    All rights reserved.
   5:c:\program files (x86)\atmel\studio 7\7.0\toolchain\avr8\avr8-gnu-toolchain\avr\include\util\delay.h **** 
   6:c:\program files (x86)\atmel\studio 7\7.0\toolchain\avr8\avr8-gnu-toolchain\avr\include\util\delay.h ****    Redistribution and use in source and binary forms, with or without
   7:c:\program files (x86)\atmel\studio 7\7.0\toolchain\avr8\avr8-gnu-toolchain\avr\include\util\delay.h ****    modification, are permitted provided that the following conditions are met:
   8:c:\program files (x86)\atmel\studio 7\7.0\toolchain\avr8\avr8-gnu-toolchain\avr\include\util\delay.h **** 
   9:c:\program files (x86)\atmel\studio 7\7.0\toolchain\avr8\avr8-gnu-toolchain\avr\include\util\delay.h ****    * Redistributions of source code must retain the above copyright
  10:c:\program files (x86)\atmel\studio 7\7.0\toolchain\avr8\avr8-gnu-toolchain\avr\include\util\delay.h ****      notice, this list of conditions and the following disclaimer.
  11:c:\program files (x86)\atmel\studio 7\7.0\toolchain\avr8\avr8-gnu-toolchain\avr\include\util\delay.h **** 
  12:c:\program files (x86)\atmel\studio 7\7.0\toolchain\avr8\avr8-gnu-toolchain\avr\include\util\delay.h ****    * Redistributions in binary form must reproduce the above copyright
  13:c:\program files (x86)\atmel\studio 7\7.0\toolchain\avr8\avr8-gnu-toolchain\avr\include\util\delay.h ****      notice, this list of conditions and the following disclaimer in
  14:c:\program files (x86)\atmel\studio 7\7.0\toolchain\avr8\avr8-gnu-toolchain\avr\include\util\delay.h ****      the documentation and/or other materials provided with the
  15:c:\program files (x86)\atmel\studio 7\7.0\toolchain\avr8\avr8-gnu-toolchain\avr\include\util\delay.h ****      distribution.
  16:c:\program files (x86)\atmel\studio 7\7.0\toolchain\avr8\avr8-gnu-toolchain\avr\include\util\delay.h **** 
  17:c:\program files (x86)\atmel\studio 7\7.0\toolchain\avr8\avr8-gnu-toolchain\avr\include\util\delay.h ****    * Neither the name of the copyright holders nor the names of
  18:c:\program files (x86)\atmel\studio 7\7.0\toolchain\avr8\avr8-gnu-toolchain\avr\include\util\delay.h ****      contributors may be used to endorse or promote products derived
  19:c:\program files (x86)\atmel\studio 7\7.0\toolchain\avr8\avr8-gnu-toolchain\avr\include\util\delay.h ****      from this software without specific prior written permission.
  20:c:\program files (x86)\atmel\studio 7\7.0\toolchain\avr8\avr8-gnu-toolchain\avr\include\util\delay.h **** 
  21:c:\program files (x86)\atmel\studio 7\7.0\toolchain\avr8\avr8-gnu-toolchain\avr\include\util\delay.h ****   THIS SOFTWARE IS PROVIDED BY THE COPYRIGHT HOLDERS AND CONTRIBUTORS "AS IS"
  22:c:\program files (x86)\atmel\studio 7\7.0\toolchain\avr8\avr8-gnu-toolchain\avr\include\util\delay.h ****   AND ANY EXPRESS OR IMPLIED WARRANTIES, INCLUDING, BUT NOT LIMITED TO, THE
  23:c:\program files (x86)\atmel\studio 7\7.0\toolchain\avr8\avr8-gnu-toolchain\avr\include\util\delay.h ****   IMPLIED WARRANTIES OF MERCHANTABILITY AND FITNESS FOR A PARTICULAR PURPOSE
  24:c:\program files (x86)\atmel\studio 7\7.0\toolchain\avr8\avr8-gnu-toolchain\avr\include\util\delay.h ****   ARE DISCLAIMED. IN NO EVENT SHALL THE COPYRIGHT OWNER OR CONTRIBUTORS BE
  25:c:\program files (x86)\atmel\studio 7\7.0\toolchain\avr8\avr8-gnu-toolchain\avr\include\util\delay.h ****   LIABLE FOR ANY DIRECT, INDIRECT, INCIDENTAL, SPECIAL, EXEMPLARY, OR
  26:c:\program files (x86)\atmel\studio 7\7.0\toolchain\avr8\avr8-gnu-toolchain\avr\include\util\delay.h ****   CONSEQUENTIAL DAMAGES (INCLUDING, BUT NOT LIMITED TO, PROCUREMENT OF
  27:c:\program files (x86)\atmel\studio 7\7.0\toolchain\avr8\avr8-gnu-toolchain\avr\include\util\delay.h ****   SUBSTITUTE GOODS OR SERVICES; LOSS OF USE, DATA, OR PROFITS; OR BUSINESS
  28:c:\program files (x86)\atmel\studio 7\7.0\toolchain\avr8\avr8-gnu-toolchain\avr\include\util\delay.h ****   INTERRUPTION) HOWEVER CAUSED AND ON ANY THEORY OF LIABILITY, WHETHER IN
  29:c:\program files (x86)\atmel\studio 7\7.0\toolchain\avr8\avr8-gnu-toolchain\avr\include\util\delay.h ****   CONTRACT, STRICT LIABILITY, OR TORT (INCLUDING NEGLIGENCE OR OTHERWISE)
  30:c:\program files (x86)\atmel\studio 7\7.0\toolchain\avr8\avr8-gnu-toolchain\avr\include\util\delay.h ****   ARISING IN ANY WAY OUT OF THE USE OF THIS SOFTWARE, EVEN IF ADVISED OF THE
  31:c:\program files (x86)\atmel\studio 7\7.0\toolchain\avr8\avr8-gnu-toolchain\avr\include\util\delay.h ****   POSSIBILITY OF SUCH DAMAGE. */
  32:c:\program files (x86)\atmel\studio 7\7.0\toolchain\avr8\avr8-gnu-toolchain\avr\include\util\delay.h **** 
  33:c:\program files (x86)\atmel\studio 7\7.0\toolchain\avr8\avr8-gnu-toolchain\avr\include\util\delay.h **** /* $Id$ */
  34:c:\program files (x86)\atmel\studio 7\7.0\toolchain\avr8\avr8-gnu-toolchain\avr\include\util\delay.h **** 
  35:c:\program files (x86)\atmel\studio 7\7.0\toolchain\avr8\avr8-gnu-toolchain\avr\include\util\delay.h **** #ifndef _UTIL_DELAY_H_
  36:c:\program files (x86)\atmel\studio 7\7.0\toolchain\avr8\avr8-gnu-toolchain\avr\include\util\delay.h **** #define _UTIL_DELAY_H_ 1
  37:c:\program files (x86)\atmel\studio 7\7.0\toolchain\avr8\avr8-gnu-toolchain\avr\include\util\delay.h **** 
  38:c:\program files (x86)\atmel\studio 7\7.0\toolchain\avr8\avr8-gnu-toolchain\avr\include\util\delay.h **** #ifndef __HAS_DELAY_CYCLES
  39:c:\program files (x86)\atmel\studio 7\7.0\toolchain\avr8\avr8-gnu-toolchain\avr\include\util\delay.h **** #define __HAS_DELAY_CYCLES 1
  40:c:\program files (x86)\atmel\studio 7\7.0\toolchain\avr8\avr8-gnu-toolchain\avr\include\util\delay.h **** #endif
  41:c:\program files (x86)\atmel\studio 7\7.0\toolchain\avr8\avr8-gnu-toolchain\avr\include\util\delay.h **** 
  42:c:\program files (x86)\atmel\studio 7\7.0\toolchain\avr8\avr8-gnu-toolchain\avr\include\util\delay.h **** #include <inttypes.h>
  43:c:\program files (x86)\atmel\studio 7\7.0\toolchain\avr8\avr8-gnu-toolchain\avr\include\util\delay.h **** #include <util/delay_basic.h>
  44:c:\program files (x86)\atmel\studio 7\7.0\toolchain\avr8\avr8-gnu-toolchain\avr\include\util\delay.h **** #include <math.h>
  45:c:\program files (x86)\atmel\studio 7\7.0\toolchain\avr8\avr8-gnu-toolchain\avr\include\util\delay.h **** 
  46:c:\program files (x86)\atmel\studio 7\7.0\toolchain\avr8\avr8-gnu-toolchain\avr\include\util\delay.h **** /** \file */
  47:c:\program files (x86)\atmel\studio 7\7.0\toolchain\avr8\avr8-gnu-toolchain\avr\include\util\delay.h **** /** \defgroup util_delay <util/delay.h>: Convenience functions for busy-wait delay loops
  48:c:\program files (x86)\atmel\studio 7\7.0\toolchain\avr8\avr8-gnu-toolchain\avr\include\util\delay.h ****     \code
  49:c:\program files (x86)\atmel\studio 7\7.0\toolchain\avr8\avr8-gnu-toolchain\avr\include\util\delay.h ****     #define F_CPU 1000000UL  // 1 MHz
  50:c:\program files (x86)\atmel\studio 7\7.0\toolchain\avr8\avr8-gnu-toolchain\avr\include\util\delay.h ****     //#define F_CPU 14.7456E6
  51:c:\program files (x86)\atmel\studio 7\7.0\toolchain\avr8\avr8-gnu-toolchain\avr\include\util\delay.h ****     #include <util/delay.h>
  52:c:\program files (x86)\atmel\studio 7\7.0\toolchain\avr8\avr8-gnu-toolchain\avr\include\util\delay.h ****     \endcode
  53:c:\program files (x86)\atmel\studio 7\7.0\toolchain\avr8\avr8-gnu-toolchain\avr\include\util\delay.h **** 
  54:c:\program files (x86)\atmel\studio 7\7.0\toolchain\avr8\avr8-gnu-toolchain\avr\include\util\delay.h ****     \note As an alternative method, it is possible to pass the
  55:c:\program files (x86)\atmel\studio 7\7.0\toolchain\avr8\avr8-gnu-toolchain\avr\include\util\delay.h ****     F_CPU macro down to the compiler from the Makefile.
  56:c:\program files (x86)\atmel\studio 7\7.0\toolchain\avr8\avr8-gnu-toolchain\avr\include\util\delay.h ****     Obviously, in that case, no \c \#define statement should be
  57:c:\program files (x86)\atmel\studio 7\7.0\toolchain\avr8\avr8-gnu-toolchain\avr\include\util\delay.h ****     used.
  58:c:\program files (x86)\atmel\studio 7\7.0\toolchain\avr8\avr8-gnu-toolchain\avr\include\util\delay.h **** 
  59:c:\program files (x86)\atmel\studio 7\7.0\toolchain\avr8\avr8-gnu-toolchain\avr\include\util\delay.h ****     The functions in this header file are wrappers around the basic
  60:c:\program files (x86)\atmel\studio 7\7.0\toolchain\avr8\avr8-gnu-toolchain\avr\include\util\delay.h ****     busy-wait functions from <util/delay_basic.h>.  They are meant as
  61:c:\program files (x86)\atmel\studio 7\7.0\toolchain\avr8\avr8-gnu-toolchain\avr\include\util\delay.h ****     convenience functions where actual time values can be specified
  62:c:\program files (x86)\atmel\studio 7\7.0\toolchain\avr8\avr8-gnu-toolchain\avr\include\util\delay.h ****     rather than a number of cycles to wait for.  The idea behind is
  63:c:\program files (x86)\atmel\studio 7\7.0\toolchain\avr8\avr8-gnu-toolchain\avr\include\util\delay.h ****     that compile-time constant expressions will be eliminated by
  64:c:\program files (x86)\atmel\studio 7\7.0\toolchain\avr8\avr8-gnu-toolchain\avr\include\util\delay.h ****     compiler optimization so floating-point expressions can be used
  65:c:\program files (x86)\atmel\studio 7\7.0\toolchain\avr8\avr8-gnu-toolchain\avr\include\util\delay.h ****     to calculate the number of delay cycles needed based on the CPU
  66:c:\program files (x86)\atmel\studio 7\7.0\toolchain\avr8\avr8-gnu-toolchain\avr\include\util\delay.h ****     frequency passed by the macro F_CPU.
  67:c:\program files (x86)\atmel\studio 7\7.0\toolchain\avr8\avr8-gnu-toolchain\avr\include\util\delay.h **** 
  68:c:\program files (x86)\atmel\studio 7\7.0\toolchain\avr8\avr8-gnu-toolchain\avr\include\util\delay.h ****     \note In order for these functions to work as intended, compiler
  69:c:\program files (x86)\atmel\studio 7\7.0\toolchain\avr8\avr8-gnu-toolchain\avr\include\util\delay.h ****     optimizations <em>must</em> be enabled, and the delay time
  70:c:\program files (x86)\atmel\studio 7\7.0\toolchain\avr8\avr8-gnu-toolchain\avr\include\util\delay.h ****     <em>must</em> be an expression that is a known constant at
  71:c:\program files (x86)\atmel\studio 7\7.0\toolchain\avr8\avr8-gnu-toolchain\avr\include\util\delay.h ****     compile-time.  If these requirements are not met, the resulting
  72:c:\program files (x86)\atmel\studio 7\7.0\toolchain\avr8\avr8-gnu-toolchain\avr\include\util\delay.h ****     delay will be much longer (and basically unpredictable), and
  73:c:\program files (x86)\atmel\studio 7\7.0\toolchain\avr8\avr8-gnu-toolchain\avr\include\util\delay.h ****     applications that otherwise do not use floating-point calculations
  74:c:\program files (x86)\atmel\studio 7\7.0\toolchain\avr8\avr8-gnu-toolchain\avr\include\util\delay.h ****     will experience severe code bloat by the floating-point library
  75:c:\program files (x86)\atmel\studio 7\7.0\toolchain\avr8\avr8-gnu-toolchain\avr\include\util\delay.h ****     routines linked into the application.
  76:c:\program files (x86)\atmel\studio 7\7.0\toolchain\avr8\avr8-gnu-toolchain\avr\include\util\delay.h **** 
  77:c:\program files (x86)\atmel\studio 7\7.0\toolchain\avr8\avr8-gnu-toolchain\avr\include\util\delay.h ****     The functions available allow the specification of microsecond, and
  78:c:\program files (x86)\atmel\studio 7\7.0\toolchain\avr8\avr8-gnu-toolchain\avr\include\util\delay.h ****     millisecond delays directly, using the application-supplied macro
  79:c:\program files (x86)\atmel\studio 7\7.0\toolchain\avr8\avr8-gnu-toolchain\avr\include\util\delay.h ****     F_CPU as the CPU clock frequency (in Hertz).
  80:c:\program files (x86)\atmel\studio 7\7.0\toolchain\avr8\avr8-gnu-toolchain\avr\include\util\delay.h **** 
  81:c:\program files (x86)\atmel\studio 7\7.0\toolchain\avr8\avr8-gnu-toolchain\avr\include\util\delay.h **** */
  82:c:\program files (x86)\atmel\studio 7\7.0\toolchain\avr8\avr8-gnu-toolchain\avr\include\util\delay.h **** 
  83:c:\program files (x86)\atmel\studio 7\7.0\toolchain\avr8\avr8-gnu-toolchain\avr\include\util\delay.h **** #if !defined(__DOXYGEN__)
  84:c:\program files (x86)\atmel\studio 7\7.0\toolchain\avr8\avr8-gnu-toolchain\avr\include\util\delay.h **** static inline void _delay_us(double __us) __attribute__((always_inline));
  85:c:\program files (x86)\atmel\studio 7\7.0\toolchain\avr8\avr8-gnu-toolchain\avr\include\util\delay.h **** static inline void _delay_ms(double __ms) __attribute__((always_inline));
  86:c:\program files (x86)\atmel\studio 7\7.0\toolchain\avr8\avr8-gnu-toolchain\avr\include\util\delay.h **** #endif
  87:c:\program files (x86)\atmel\studio 7\7.0\toolchain\avr8\avr8-gnu-toolchain\avr\include\util\delay.h **** 
  88:c:\program files (x86)\atmel\studio 7\7.0\toolchain\avr8\avr8-gnu-toolchain\avr\include\util\delay.h **** #ifndef F_CPU
  89:c:\program files (x86)\atmel\studio 7\7.0\toolchain\avr8\avr8-gnu-toolchain\avr\include\util\delay.h **** /* prevent compiler error by supplying a default */
  90:c:\program files (x86)\atmel\studio 7\7.0\toolchain\avr8\avr8-gnu-toolchain\avr\include\util\delay.h **** # warning "F_CPU not defined for <util/delay.h>"
  91:c:\program files (x86)\atmel\studio 7\7.0\toolchain\avr8\avr8-gnu-toolchain\avr\include\util\delay.h **** # define F_CPU 1000000UL
  92:c:\program files (x86)\atmel\studio 7\7.0\toolchain\avr8\avr8-gnu-toolchain\avr\include\util\delay.h **** #endif
  93:c:\program files (x86)\atmel\studio 7\7.0\toolchain\avr8\avr8-gnu-toolchain\avr\include\util\delay.h **** 
  94:c:\program files (x86)\atmel\studio 7\7.0\toolchain\avr8\avr8-gnu-toolchain\avr\include\util\delay.h **** #ifndef __OPTIMIZE__
  95:c:\program files (x86)\atmel\studio 7\7.0\toolchain\avr8\avr8-gnu-toolchain\avr\include\util\delay.h **** # warning "Compiler optimizations disabled; functions from <util/delay.h> won't work as designed"
  96:c:\program files (x86)\atmel\studio 7\7.0\toolchain\avr8\avr8-gnu-toolchain\avr\include\util\delay.h **** #endif
  97:c:\program files (x86)\atmel\studio 7\7.0\toolchain\avr8\avr8-gnu-toolchain\avr\include\util\delay.h **** 
  98:c:\program files (x86)\atmel\studio 7\7.0\toolchain\avr8\avr8-gnu-toolchain\avr\include\util\delay.h **** #if __HAS_DELAY_CYCLES && defined(__OPTIMIZE__) && \
  99:c:\program files (x86)\atmel\studio 7\7.0\toolchain\avr8\avr8-gnu-toolchain\avr\include\util\delay.h ****   !defined(__DELAY_BACKWARD_COMPATIBLE__) &&	   \
 100:c:\program files (x86)\atmel\studio 7\7.0\toolchain\avr8\avr8-gnu-toolchain\avr\include\util\delay.h ****   __STDC_HOSTED__
 101:c:\program files (x86)\atmel\studio 7\7.0\toolchain\avr8\avr8-gnu-toolchain\avr\include\util\delay.h **** #  include <math.h>
 102:c:\program files (x86)\atmel\studio 7\7.0\toolchain\avr8\avr8-gnu-toolchain\avr\include\util\delay.h **** #endif
 103:c:\program files (x86)\atmel\studio 7\7.0\toolchain\avr8\avr8-gnu-toolchain\avr\include\util\delay.h **** 
 104:c:\program files (x86)\atmel\studio 7\7.0\toolchain\avr8\avr8-gnu-toolchain\avr\include\util\delay.h **** /**
 105:c:\program files (x86)\atmel\studio 7\7.0\toolchain\avr8\avr8-gnu-toolchain\avr\include\util\delay.h ****    \ingroup util_delay
 106:c:\program files (x86)\atmel\studio 7\7.0\toolchain\avr8\avr8-gnu-toolchain\avr\include\util\delay.h **** 
 107:c:\program files (x86)\atmel\studio 7\7.0\toolchain\avr8\avr8-gnu-toolchain\avr\include\util\delay.h ****    Perform a delay of \c __ms milliseconds, using _delay_loop_2().
 108:c:\program files (x86)\atmel\studio 7\7.0\toolchain\avr8\avr8-gnu-toolchain\avr\include\util\delay.h **** 
 109:c:\program files (x86)\atmel\studio 7\7.0\toolchain\avr8\avr8-gnu-toolchain\avr\include\util\delay.h ****    The macro F_CPU is supposed to be defined to a
 110:c:\program files (x86)\atmel\studio 7\7.0\toolchain\avr8\avr8-gnu-toolchain\avr\include\util\delay.h ****    constant defining the CPU clock frequency (in Hertz).
 111:c:\program files (x86)\atmel\studio 7\7.0\toolchain\avr8\avr8-gnu-toolchain\avr\include\util\delay.h **** 
 112:c:\program files (x86)\atmel\studio 7\7.0\toolchain\avr8\avr8-gnu-toolchain\avr\include\util\delay.h ****    The maximal possible delay is 262.14 ms / F_CPU in MHz.
 113:c:\program files (x86)\atmel\studio 7\7.0\toolchain\avr8\avr8-gnu-toolchain\avr\include\util\delay.h **** 
 114:c:\program files (x86)\atmel\studio 7\7.0\toolchain\avr8\avr8-gnu-toolchain\avr\include\util\delay.h ****    When the user request delay which exceed the maximum possible one,
 115:c:\program files (x86)\atmel\studio 7\7.0\toolchain\avr8\avr8-gnu-toolchain\avr\include\util\delay.h ****    _delay_ms() provides a decreased resolution functionality. In this
 116:c:\program files (x86)\atmel\studio 7\7.0\toolchain\avr8\avr8-gnu-toolchain\avr\include\util\delay.h ****    mode _delay_ms() will work with a resolution of 1/10 ms, providing
 117:c:\program files (x86)\atmel\studio 7\7.0\toolchain\avr8\avr8-gnu-toolchain\avr\include\util\delay.h ****    delays up to 6.5535 seconds (independent from CPU frequency).  The
 118:c:\program files (x86)\atmel\studio 7\7.0\toolchain\avr8\avr8-gnu-toolchain\avr\include\util\delay.h ****    user will not be informed about decreased resolution.
 119:c:\program files (x86)\atmel\studio 7\7.0\toolchain\avr8\avr8-gnu-toolchain\avr\include\util\delay.h **** 
 120:c:\program files (x86)\atmel\studio 7\7.0\toolchain\avr8\avr8-gnu-toolchain\avr\include\util\delay.h ****    If the avr-gcc toolchain has __builtin_avr_delay_cycles(unsigned long)
 121:c:\program files (x86)\atmel\studio 7\7.0\toolchain\avr8\avr8-gnu-toolchain\avr\include\util\delay.h ****    support, maximal possible delay is 4294967.295 ms/ F_CPU in MHz. For
 122:c:\program files (x86)\atmel\studio 7\7.0\toolchain\avr8\avr8-gnu-toolchain\avr\include\util\delay.h ****    values greater than the maximal possible delay, overflows results in
 123:c:\program files (x86)\atmel\studio 7\7.0\toolchain\avr8\avr8-gnu-toolchain\avr\include\util\delay.h ****    no delay i.e., 0ms.
 124:c:\program files (x86)\atmel\studio 7\7.0\toolchain\avr8\avr8-gnu-toolchain\avr\include\util\delay.h **** 
 125:c:\program files (x86)\atmel\studio 7\7.0\toolchain\avr8\avr8-gnu-toolchain\avr\include\util\delay.h ****    Conversion of __us into clock cycles may not always result in integer.
 126:c:\program files (x86)\atmel\studio 7\7.0\toolchain\avr8\avr8-gnu-toolchain\avr\include\util\delay.h ****    By default, the clock cycles rounded up to next integer. This ensures that
 127:c:\program files (x86)\atmel\studio 7\7.0\toolchain\avr8\avr8-gnu-toolchain\avr\include\util\delay.h ****    the user gets atleast __us microseconds of delay.
 128:c:\program files (x86)\atmel\studio 7\7.0\toolchain\avr8\avr8-gnu-toolchain\avr\include\util\delay.h **** 
 129:c:\program files (x86)\atmel\studio 7\7.0\toolchain\avr8\avr8-gnu-toolchain\avr\include\util\delay.h ****    Alternatively, user can define __DELAY_ROUND_DOWN__ and __DELAY_ROUND_CLOSEST__
 130:c:\program files (x86)\atmel\studio 7\7.0\toolchain\avr8\avr8-gnu-toolchain\avr\include\util\delay.h ****    to round down and round to closest integer.
 131:c:\program files (x86)\atmel\studio 7\7.0\toolchain\avr8\avr8-gnu-toolchain\avr\include\util\delay.h **** 
 132:c:\program files (x86)\atmel\studio 7\7.0\toolchain\avr8\avr8-gnu-toolchain\avr\include\util\delay.h ****    Note: The new implementation of _delay_ms(double __ms) with 
 133:c:\program files (x86)\atmel\studio 7\7.0\toolchain\avr8\avr8-gnu-toolchain\avr\include\util\delay.h ****     __builtin_avr_delay_cycles(unsigned long) support is not backward compatible. 
 134:c:\program files (x86)\atmel\studio 7\7.0\toolchain\avr8\avr8-gnu-toolchain\avr\include\util\delay.h ****    User can define __DELAY_BACKWARD_COMPATIBLE__ to get a backward compatible delay.
 135:c:\program files (x86)\atmel\studio 7\7.0\toolchain\avr8\avr8-gnu-toolchain\avr\include\util\delay.h ****    Also, the backward compatible
 136:c:\program files (x86)\atmel\studio 7\7.0\toolchain\avr8\avr8-gnu-toolchain\avr\include\util\delay.h ****    algorithm will be chosen if the code is compiled in a <em>freestanding
 137:c:\program files (x86)\atmel\studio 7\7.0\toolchain\avr8\avr8-gnu-toolchain\avr\include\util\delay.h ****    environment</em> (GCC option \c -ffreestanding), as the math functions
 138:c:\program files (x86)\atmel\studio 7\7.0\toolchain\avr8\avr8-gnu-toolchain\avr\include\util\delay.h ****    required for rounding are not available to the compiler then.
 139:c:\program files (x86)\atmel\studio 7\7.0\toolchain\avr8\avr8-gnu-toolchain\avr\include\util\delay.h **** 
 140:c:\program files (x86)\atmel\studio 7\7.0\toolchain\avr8\avr8-gnu-toolchain\avr\include\util\delay.h ****  */
 141:c:\program files (x86)\atmel\studio 7\7.0\toolchain\avr8\avr8-gnu-toolchain\avr\include\util\delay.h **** void
 142:c:\program files (x86)\atmel\studio 7\7.0\toolchain\avr8\avr8-gnu-toolchain\avr\include\util\delay.h **** _delay_ms(double __ms)
 143:c:\program files (x86)\atmel\studio 7\7.0\toolchain\avr8\avr8-gnu-toolchain\avr\include\util\delay.h **** {
 144:c:\program files (x86)\atmel\studio 7\7.0\toolchain\avr8\avr8-gnu-toolchain\avr\include\util\delay.h **** 	double __tmp ; 
 145:c:\program files (x86)\atmel\studio 7\7.0\toolchain\avr8\avr8-gnu-toolchain\avr\include\util\delay.h **** #if __HAS_DELAY_CYCLES && defined(__OPTIMIZE__) && \
 146:c:\program files (x86)\atmel\studio 7\7.0\toolchain\avr8\avr8-gnu-toolchain\avr\include\util\delay.h ****   !defined(__DELAY_BACKWARD_COMPATIBLE__) &&	   \
 147:c:\program files (x86)\atmel\studio 7\7.0\toolchain\avr8\avr8-gnu-toolchain\avr\include\util\delay.h ****   __STDC_HOSTED__
 148:c:\program files (x86)\atmel\studio 7\7.0\toolchain\avr8\avr8-gnu-toolchain\avr\include\util\delay.h **** 	uint32_t __ticks_dc;
 149:c:\program files (x86)\atmel\studio 7\7.0\toolchain\avr8\avr8-gnu-toolchain\avr\include\util\delay.h **** 	extern void __builtin_avr_delay_cycles(unsigned long);
 150:c:\program files (x86)\atmel\studio 7\7.0\toolchain\avr8\avr8-gnu-toolchain\avr\include\util\delay.h **** 	__tmp = ((F_CPU) / 1e3) * __ms;
 151:c:\program files (x86)\atmel\studio 7\7.0\toolchain\avr8\avr8-gnu-toolchain\avr\include\util\delay.h **** 
 152:c:\program files (x86)\atmel\studio 7\7.0\toolchain\avr8\avr8-gnu-toolchain\avr\include\util\delay.h **** 	#if defined(__DELAY_ROUND_DOWN__)
 153:c:\program files (x86)\atmel\studio 7\7.0\toolchain\avr8\avr8-gnu-toolchain\avr\include\util\delay.h **** 		__ticks_dc = (uint32_t)fabs(__tmp);
 154:c:\program files (x86)\atmel\studio 7\7.0\toolchain\avr8\avr8-gnu-toolchain\avr\include\util\delay.h **** 
 155:c:\program files (x86)\atmel\studio 7\7.0\toolchain\avr8\avr8-gnu-toolchain\avr\include\util\delay.h **** 	#elif defined(__DELAY_ROUND_CLOSEST__)
 156:c:\program files (x86)\atmel\studio 7\7.0\toolchain\avr8\avr8-gnu-toolchain\avr\include\util\delay.h **** 		__ticks_dc = (uint32_t)(fabs(__tmp)+0.5);
 157:c:\program files (x86)\atmel\studio 7\7.0\toolchain\avr8\avr8-gnu-toolchain\avr\include\util\delay.h **** 
 158:c:\program files (x86)\atmel\studio 7\7.0\toolchain\avr8\avr8-gnu-toolchain\avr\include\util\delay.h **** 	#else
 159:c:\program files (x86)\atmel\studio 7\7.0\toolchain\avr8\avr8-gnu-toolchain\avr\include\util\delay.h **** 		//round up by default
 160:c:\program files (x86)\atmel\studio 7\7.0\toolchain\avr8\avr8-gnu-toolchain\avr\include\util\delay.h **** 		__ticks_dc = (uint32_t)(ceil(fabs(__tmp)));
 161:c:\program files (x86)\atmel\studio 7\7.0\toolchain\avr8\avr8-gnu-toolchain\avr\include\util\delay.h **** 	#endif
 162:c:\program files (x86)\atmel\studio 7\7.0\toolchain\avr8\avr8-gnu-toolchain\avr\include\util\delay.h **** 
 163:c:\program files (x86)\atmel\studio 7\7.0\toolchain\avr8\avr8-gnu-toolchain\avr\include\util\delay.h **** 	__builtin_avr_delay_cycles(__ticks_dc);
 316               	.LM27:
 317 001c 8FE3      		ldi r24,lo8(7999)
 318 001e 9FE1      		ldi r25,hi8(7999)
 319 0020 0197      	1:	sbiw r24,1
 320 0022 01F4      		brne 1b
 321 0024 00C0      		rjmp .
 322 0026 0000      		nop
 323               	.LBE10:
 324               	.LBE9:
 326               	.Ltext2:
  89:menu.c        **** 	#endif
  90:menu.c        **** 
  91:menu.c        **** 	_delay_ms(2);
  92:menu.c        **** 	while(1)
  93:menu.c        **** 	{
  94:menu.c        **** 		_delay_ms(20);
  95:menu.c        **** 		if(c != 0) c--;
  96:menu.c        **** 		
  97:menu.c        **** 		switch(st)
  98:menu.c        **** 		{
  99:menu.c        **** 			case 0:
 100:menu.c        **** 			{
 101:menu.c        **** 				if((msk = btnCheckAll())!=0)
 102:menu.c        **** 					st++;
 103:menu.c        **** 				break;
 104:menu.c        **** 			}
 105:menu.c        **** 			case 1:
 106:menu.c        **** 			{
 107:menu.c        **** 				//_delay_ms(10);
 108:menu.c        **** 				if(btnCheck(msk) != 0)
 109:menu.c        **** 				{
 110:menu.c        **** 					st++;
 328               	.LM28:
 329 0028 12E0      		ldi r17,lo8(2)
 111:menu.c        **** 					c = 25;
 331               	.LM29:
 332 002a 09E1      		ldi r16,lo8(25)
 102:menu.c        **** 				break;
 334               	.LM30:
 335 002c FF24      		clr r15
 336 002e F394      		inc r15
 112:menu.c        **** 				}
 113:menu.c        **** 				else
 114:menu.c        **** 					st = 0;
 115:menu.c        **** 				break;
 116:menu.c        **** 			}
 117:menu.c        **** 			case 2:
 118:menu.c        **** 			{
 119:menu.c        **** 				if((btnCheck(msk) == 0) && c != 0)
 120:menu.c        **** 				{
 121:menu.c        **** 					//обычное нажатие
 122:menu.c        **** 					st = 0;
 123:menu.c        **** 					BTN_PORT = p;
 124:menu.c        **** 					BTN_DDR = d;
 125:menu.c        **** 					return msk;
 126:menu.c        **** 				}
 127:menu.c        **** 				else if((btnCheck(msk) != 0) && c == 0)
 128:menu.c        **** 				{
 129:menu.c        **** 					//долгое нажатие
 130:menu.c        **** 					//c = 10;
 131:menu.c        **** 					st = 3;
 338               	.LM31:
 339 0030 83E0      		ldi r24,lo8(3)
 340 0032 E82E      		mov r14,r24
 341               	.L20:
 342               	.LBB11:
 343               	.LBB12:
 345               	.Ltext3:
 347               	.LM32:
 348 0034 9FEF      		ldi r25,lo8(63999)
 349 0036 29EF      		ldi r18,hi8(63999)
 350 0038 80E0      		ldi r24,hlo8(63999)
 351 003a 9150      	1:	subi r25,1
 352 003c 2040      		sbci r18,0
 353 003e 8040      		sbci r24,0
 354 0040 01F4      		brne 1b
 355 0042 00C0      		rjmp .
 356 0044 0000      		nop
 357               	.LBE12:
 358               	.LBE11:
 360               	.Ltext4:
  95:menu.c        **** 		
 362               	.LM33:
 363 0046 8091 0000 		lds r24,c.2100
 364 004a 8823      		tst r24
 365 004c 01F0      		breq .L21
  95:menu.c        **** 		
 367               	.LM34:
 368 004e 8150      		subi r24,lo8(-(-1))
 369 0050 8093 0000 		sts c.2100,r24
 370               	.L21:
  97:menu.c        **** 		{
 372               	.LM35:
 373 0054 8091 0000 		lds r24,st.2098
 374 0058 8130      		cpi r24,lo8(1)
 375 005a 01F0      		breq .L23
 376 005c 00F0      		brlo .L24
 377 005e 8230      		cpi r24,lo8(2)
 378 0060 01F0      		breq .L25
 379 0062 8330      		cpi r24,lo8(3)
 380 0064 01F0      		breq .L26
 381 0066 00C0      		rjmp .L22
 382               	.L24:
 101:menu.c        **** 					st++;
 384               	.LM36:
 385 0068 00D0      		rcall btnCheckAll
 386 006a 8093 0000 		sts msk.2099,r24
 387 006e 8823      		tst r24
 388 0070 01F0      		breq .L20
 102:menu.c        **** 				break;
 390               	.LM37:
 391 0072 F092 0000 		sts st.2098,r15
 392 0076 00C0      		rjmp .L20
 393               	.L23:
 108:menu.c        **** 				{
 395               	.LM38:
 396 0078 93B3      		in r25,0x13
 397 007a 8091 0000 		lds r24,msk.2099
 398 007e 8923      		and r24,r25
 399 0080 01F4      		brne .L22
 110:menu.c        **** 					c = 25;
 401               	.LM39:
 402 0082 1093 0000 		sts st.2098,r17
 111:menu.c        **** 				}
 404               	.LM40:
 405 0086 0093 0000 		sts c.2100,r16
 406 008a 00C0      		rjmp .L20
 407               	.L25:
 119:menu.c        **** 				{
 409               	.LM41:
 410 008c 93B3      		in r25,0x13
 411 008e 8091 0000 		lds r24,msk.2099
 412 0092 9823      		and r25,r24
 413 0094 01F0      		breq .L30
 119:menu.c        **** 				{
 415               	.LM42:
 416 0096 9091 0000 		lds r25,c.2100
 417 009a 9923      		tst r25
 418 009c 01F0      		breq .L30
 122:menu.c        **** 					BTN_PORT = p;
 420               	.LM43:
 421 009e 1092 0000 		sts st.2098,__zero_reg__
 422 00a2 00C0      		rjmp .L48
 423               	.L30:
 127:menu.c        **** 				{
 425               	.LM44:
 426 00a4 93B3      		in r25,0x13
 427 00a6 8923      		and r24,r25
 428 00a8 01F4      		brne .L20
 127:menu.c        **** 				{
 430               	.LM45:
 431 00aa 8091 0000 		lds r24,c.2100
 432 00ae 8111      		cpse r24,__zero_reg__
 433 00b0 00C0      		rjmp .L20
 435               	.LM46:
 436 00b2 E092 0000 		sts st.2098,r14
 437 00b6 00C0      		rjmp .L20
 438               	.L26:
 132:menu.c        **** 				}
 133:menu.c        **** 
 134:menu.c        **** 				break;
 135:menu.c        **** 			}
 136:menu.c        **** 			case 3:
 137:menu.c        **** 			{
 138:menu.c        **** 				if(c == 0)
 440               	.LM47:
 441 00b8 8091 0000 		lds r24,c.2100
 442 00bc 8111      		cpse r24,__zero_reg__
 443 00be 00C0      		rjmp .L22
 139:menu.c        **** 				{
 140:menu.c        **** 					
 141:menu.c        **** 					if((btnCheck(msk) == 0))
 445               	.LM48:
 446 00c0 93B3      		in r25,0x13
 447 00c2 8091 0000 		lds r24,msk.2099
 448 00c6 8923      		and r24,r25
 449 00c8 01F0      		breq .L32
 142:menu.c        **** 					{
 143:menu.c        **** 						st = 0;
 451               	.LM49:
 452 00ca 1092 0000 		sts st.2098,__zero_reg__
 453               	.L32:
 144:menu.c        **** 					}
 145:menu.c        **** 					c = 2;
 455               	.LM50:
 456 00ce 82E0      		ldi r24,lo8(2)
 457 00d0 8093 0000 		sts c.2100,r24
 458               	.L48:
 146:menu.c        **** 					//_delay_ms(200);
 147:menu.c        **** 					BTN_PORT = p;
 460               	.LM51:
 461 00d4 C5BB      		out 0x15,r28
 148:menu.c        **** 					BTN_DDR = d;
 463               	.LM52:
 464 00d6 D4BB      		out 0x14,r29
 149:menu.c        **** 					return msk;
 466               	.LM53:
 467 00d8 8091 0000 		lds r24,msk.2099
 468               	/* epilogue start */
 150:menu.c        **** 				}
 151:menu.c        **** 			}
 152:menu.c        **** 			default:
 153:menu.c        **** 				st =0;
 154:menu.c        **** 				break;
 155:menu.c        **** 		}
 156:menu.c        **** 
 157:menu.c        **** 	}
 158:menu.c        **** }
 470               	.LM54:
 471 00dc DF91      		pop r29
 472 00de CF91      		pop r28
 473 00e0 1F91      		pop r17
 474 00e2 0F91      		pop r16
 475 00e4 FF90      		pop r15
 476 00e6 EF90      		pop r14
 477 00e8 0895      		ret
 478               	.L22:
 153:menu.c        **** 				break;
 480               	.LM55:
 481 00ea 1092 0000 		sts st.2098,__zero_reg__
 154:menu.c        **** 		}
 483               	.LM56:
 484 00ee 00C0      		rjmp .L20
 493               	.Lscope4:
 494               		.section	.text.btn_wait_up,"ax",@progbits
 497               	.global	btn_wait_up
 499               	btn_wait_up:
 159:menu.c        **** 
 160:menu.c        **** void btn_wait_up(uint8_t b)
 161:menu.c        **** {
 501               	.LM57:
 502               	.LFBB5:
 503               	/* prologue: function */
 504               	/* frame size = 0 */
 505               	/* stack size = 0 */
 506               	.L__stack_usage = 0
 507               	.L50:
 162:menu.c        **** 	while(btnCheck(b))
 509               	.LM58:
 510 0000 93B3      		in r25,0x13
 511 0002 9823      		and r25,r24
 512 0004 01F4      		brne .L52
 513               	.LBB13:
 514               	.LBB14:
 516               	.Ltext5:
 518               	.LM59:
 519 0006 2FEF      		ldi r18,lo8(63999)
 520 0008 39EF      		ldi r19,hi8(63999)
 521 000a 90E0      		ldi r25,hlo8(63999)
 522 000c 2150      	1:	subi r18,1
 523 000e 3040      		sbci r19,0
 524 0010 9040      		sbci r25,0
 525 0012 01F4      		brne 1b
 526 0014 00C0      		rjmp .
 527 0016 0000      		nop
 528 0018 00C0      		rjmp .L50
 529               	.L52:
 530               	/* epilogue start */
 531               	.LBE14:
 532               	.LBE13:
 534               	.Ltext6:
 163:menu.c        **** 	_delay_ms(20);
 164:menu.c        **** }
 536               	.LM60:
 537 001a 0895      		ret
 539               	.Lscope5:
 540               		.section	.text.print_u,"ax",@progbits
 543               	.global	print_u
 545               	print_u:
 165:menu.c        **** 
 166:menu.c        **** 
 167:menu.c        **** void print_u(uint32_t a, uint8_t p)
 168:menu.c        **** {
 547               	.LM61:
 548               	.LFBB6:
 549 0000 8F92      		push r8
 550 0002 9F92      		push r9
 551 0004 AF92      		push r10
 552 0006 BF92      		push r11
 553 0008 CF92      		push r12
 554 000a DF92      		push r13
 555 000c EF92      		push r14
 556 000e FF92      		push r15
 557 0010 0F93      		push r16
 558 0012 1F93      		push r17
 559 0014 CF93      		push r28
 560 0016 DF93      		push r29
 561 0018 CDB7      		in r28,__SP_L__
 562 001a DEB7      		in r29,__SP_H__
 563 001c 2997      		sbiw r28,9
 564 001e 0FB6      		in __tmp_reg__,__SREG__
 565 0020 F894      		cli
 566 0022 DEBF      		out __SP_H__,r29
 567 0024 0FBE      		out __SREG__,__tmp_reg__
 568 0026 CDBF      		out __SP_L__,r28
 569               	/* prologue: function */
 570               	/* frame size = 9 */
 571               	/* stack size = 21 */
 572               	.L__stack_usage = 21
 573 0028 D42E      		mov r13,r20
 574 002a 8E01      		movw r16,r28
 575 002c 075F      		subi r16,-9
 576 002e 1F4F      		sbci r17,-1
 577 0030 9E01      		movw r18,r28
 578 0032 2F5F      		subi r18,-1
 579 0034 3F4F      		sbci r19,-1
 580 0036 7901      		movw r14,r18
 169:menu.c        **** 	char s[9];//, c;
 170:menu.c        **** 	uint8_t i;
 171:menu.c        **** 	
 172:menu.c        **** 	i = 8;
 173:menu.c        **** 	do
 174:menu.c        **** 	{
 175:menu.c        **** 		s[i] = (a % 10) + '0';
 582               	.LM62:
 583 0038 2AE0      		ldi r18,lo8(10)
 584 003a 822E      		mov r8,r18
 585 003c 912C      		mov r9,__zero_reg__
 586 003e A12C      		mov r10,__zero_reg__
 587 0040 B12C      		mov r11,__zero_reg__
 588               	.L54:
 590               	.LM63:
 591 0042 A501      		movw r20,r10
 592 0044 9401      		movw r18,r8
 593 0046 00D0      		rcall __udivmodsi4
 594 0048 605D      		subi r22,lo8(-(48))
 595 004a F801      		movw r30,r16
 596 004c 6083      		st Z,r22
 176:menu.c        **** 		a /= 10;
 598               	.LM64:
 599 004e B901      		movw r22,r18
 600 0050 CA01      		movw r24,r20
 601 0052 0150      		subi r16,1
 602 0054 1109      		sbc r17,__zero_reg__
 177:menu.c        **** 		i--;
 178:menu.c        **** 	}
 179:menu.c        **** 	while(i > 0);
 604               	.LM65:
 605 0056 0E15      		cp r16,r14
 606 0058 1F05      		cpc r17,r15
 607 005a 01F4      		brne .L54
 608 005c FE01      		movw r30,r28
 609 005e 3296      		adiw r30,2
 611               	.LM66:
 612 0060 10E0      		ldi r17,0
 613               	.L57:
 180:menu.c        **** 	
 181:menu.c        **** 	i = 0;
 182:menu.c        **** 	while(s[++i] == '0' && i < 8){};
 615               	.LM67:
 616 0062 1F5F      		subi r17,lo8(-(1))
 617 0064 8191      		ld r24,Z+
 618 0066 8033      		cpi r24,lo8(48)
 619 0068 01F0      		breq .L55
 620               	.L58:
 183:menu.c        **** 	for(; i<9; i++)
 184:menu.c        **** 	{
 185:menu.c        **** 		n_putchar(s[i]);
 186:menu.c        **** 		if(9 - i == p)
 622               	.LM68:
 623 006a 89E0      		ldi r24,lo8(9)
 624 006c 882E      		mov r8,r24
 625 006e 912C      		mov r9,__zero_reg__
 626 0070 CD2C      		mov r12,r13
 627 0072 D12C      		mov r13,__zero_reg__
 628 0074 00C0      		rjmp .L56
 629               	.L55:
 182:menu.c        **** 	for(; i<9; i++)
 631               	.LM69:
 632 0076 1830      		cpi r17,lo8(8)
 633 0078 01F4      		brne .L57
 634 007a 00C0      		rjmp .L58
 635               	.L56:
 185:menu.c        **** 		if(9 - i == p)
 637               	.LM70:
 638 007c A12E      		mov r10,r17
 639 007e B12C      		mov r11,__zero_reg__
 640 0080 F701      		movw r30,r14
 641 0082 EA0D      		add r30,r10
 642 0084 FB1D      		adc r31,r11
 643 0086 8081      		ld r24,Z
 644 0088 00D0      		rcall n_putchar
 646               	.LM71:
 647 008a C401      		movw r24,r8
 648 008c 8A19      		sub r24,r10
 649 008e 9B09      		sbc r25,r11
 650 0090 8C15      		cp r24,r12
 651 0092 9D05      		cpc r25,r13
 652 0094 01F4      		brne .L59
 187:menu.c        **** 		n_putchar(',');
 654               	.LM72:
 655 0096 8CE2      		ldi r24,lo8(44)
 656 0098 00D0      		rcall n_putchar
 657               	.L59:
 183:menu.c        **** 	{
 659               	.LM73:
 660 009a 1F5F      		subi r17,lo8(-(1))
 661 009c 1930      		cpi r17,lo8(9)
 662 009e 01F4      		brne .L56
 663               	/* epilogue start */
 188:menu.c        **** 	}
 189:menu.c        **** 
 190:menu.c        **** }
 665               	.LM74:
 666 00a0 2996      		adiw r28,9
 667 00a2 0FB6      		in __tmp_reg__,__SREG__
 668 00a4 F894      		cli
 669 00a6 DEBF      		out __SP_H__,r29
 670 00a8 0FBE      		out __SREG__,__tmp_reg__
 671 00aa CDBF      		out __SP_L__,r28
 672 00ac DF91      		pop r29
 673 00ae CF91      		pop r28
 674 00b0 1F91      		pop r17
 675 00b2 0F91      		pop r16
 676 00b4 FF90      		pop r15
 677 00b6 EF90      		pop r14
 678 00b8 DF90      		pop r13
 679 00ba CF90      		pop r12
 680 00bc BF90      		pop r11
 681 00be AF90      		pop r10
 682 00c0 9F90      		pop r9
 683 00c2 8F90      		pop r8
 684 00c4 0895      		ret
 690               	.Lscope6:
 691               		.section	.text.print_fq,"ax",@progbits
 694               	.global	print_fq
 696               	print_fq:
 191:menu.c        **** 
 192:menu.c        **** uint16_t print_fq(uint32_t f)
 193:menu.c        **** {
 698               	.LM75:
 699               	.LFBB7:
 700 0000 CF92      		push r12
 701 0002 DF92      		push r13
 702 0004 EF92      		push r14
 703 0006 FF92      		push r15
 704 0008 0F93      		push r16
 705 000a 1F93      		push r17
 706 000c CF93      		push r28
 707 000e DF93      		push r29
 708               	/* prologue: function */
 709               	/* frame size = 0 */
 710               	/* stack size = 8 */
 711               	.L__stack_usage = 8
 194:menu.c        **** 	char p, pr;
 195:menu.c        **** 	uint16_t d;
 196:menu.c        **** 	
 197:menu.c        **** 	
 198:menu.c        **** 	d = 1;
 199:menu.c        **** 	pr = 0;
 200:menu.c        **** 	p = 0;// после какого разряда стоит дес. точка
 201:menu.c        **** 
 202:menu.c        **** 	if(f < 10000)
 713               	.LM76:
 714 0010 6031      		cpi r22,16
 715 0012 27E2      		ldi r18,39
 716 0014 7207      		cpc r23,r18
 717 0016 8105      		cpc r24,__zero_reg__
 718 0018 9105      		cpc r25,__zero_reg__
 719 001a 00F4      		brsh .L64
 203:menu.c        **** 	{
 204:menu.c        **** 		if(generator.m == M_SQPWM)
 721               	.LM77:
 722 001c 2091 0000 		lds r18,generator
 723 0020 2830      		cpi r18,lo8(8)
 724 0022 01F4      		brne .L69
 205:menu.c        **** 		{
 206:menu.c        **** 			if(f > 1000)
 726               	.LM78:
 727 0024 693E      		cpi r22,-23
 728 0026 23E0      		ldi r18,3
 729 0028 7207      		cpc r23,r18
 730 002a 8105      		cpc r24,__zero_reg__
 731 002c 9105      		cpc r25,__zero_reg__
 732 002e 00F4      		brsh .L71
 733 0030 00C0      		rjmp .L69
 734               	.L64:
 207:menu.c        **** 			{
 208:menu.c        **** 				d = 100;
 209:menu.c        **** 				p = 2;
 210:menu.c        **** 				pr ='K';
 211:menu.c        **** 			}
 212:menu.c        **** 		}
 213:menu.c        **** 
 214:menu.c        **** 	}
 215:menu.c        **** 	else if (f < 100000)
 736               	.LM79:
 737 0032 603A      		cpi r22,-96
 738 0034 26E8      		ldi r18,-122
 739 0036 7207      		cpc r23,r18
 740 0038 21E0      		ldi r18,1
 741 003a 8207      		cpc r24,r18
 742 003c 9105      		cpc r25,__zero_reg__
 743 003e 00F4      		brsh .L66
 216:menu.c        **** 	{
 217:menu.c        **** 		pr ='K';
 218:menu.c        **** 		if(generator.m == M_SQPWM)
 745               	.LM80:
 746 0040 2091 0000 		lds r18,generator
 747 0044 2830      		cpi r18,lo8(8)
 748 0046 01F0      		breq .L70
 219:menu.c        **** 		{
 220:menu.c        **** 			d = 1000;
 221:menu.c        **** 			p = 0;
 222:menu.c        **** 		}
 223:menu.c        **** 		else
 224:menu.c        **** 		{
 225:menu.c        **** 			d = 10;
 750               	.LM81:
 751 0048 CAE0      		ldi r28,lo8(10)
 752 004a D0E0      		ldi r29,0
 217:menu.c        **** 		if(generator.m == M_SQPWM)
 754               	.LM82:
 755 004c 1BE4      		ldi r17,lo8(75)
 756 004e 00C0      		rjmp .L76
 757               	.L66:
 226:menu.c        **** 			p = 3;
 227:menu.c        **** 		}
 228:menu.c        **** 	}
 229:menu.c        **** 	else if (f < 1000000)
 759               	.LM83:
 760 0050 6034      		cpi r22,64
 761 0052 22E4      		ldi r18,66
 762 0054 7207      		cpc r23,r18
 763 0056 2FE0      		ldi r18,15
 764 0058 8207      		cpc r24,r18
 765 005a 9105      		cpc r25,__zero_reg__
 766 005c 00F0      		brlo .L71
 230:menu.c        **** 	{
 231:menu.c        **** 
 232:menu.c        **** 		pr ='K';
 233:menu.c        **** 		d = 100;
 234:menu.c        **** 		p = 2;
 235:menu.c        **** 	}
 236:menu.c        **** 	else
 237:menu.c        **** 	{
 238:menu.c        **** 		d = 10000;
 768               	.LM84:
 769 005e C0E1      		ldi r28,lo8(16)
 770 0060 D7E2      		ldi r29,lo8(39)
 239:menu.c        **** 		p = 3;
 240:menu.c        **** 		pr ='M';
 772               	.LM85:
 773 0062 1DE4      		ldi r17,lo8(77)
 774               	.L76:
 239:menu.c        **** 		p = 3;
 776               	.LM86:
 777 0064 03E0      		ldi r16,lo8(3)
 778 0066 00C0      		rjmp .L65
 779               	.L69:
 198:menu.c        **** 	pr = 0;
 781               	.LM87:
 782 0068 C1E0      		ldi r28,lo8(1)
 783 006a D0E0      		ldi r29,0
 199:menu.c        **** 	p = 0;// после какого разряда стоит дес. точка
 785               	.LM88:
 786 006c 10E0      		ldi r17,0
 787 006e 00C0      		rjmp .L75
 788               	.L70:
 220:menu.c        **** 			p = 0;
 790               	.LM89:
 791 0070 C8EE      		ldi r28,lo8(-24)
 792 0072 D3E0      		ldi r29,lo8(3)
 217:menu.c        **** 		if(generator.m == M_SQPWM)
 794               	.LM90:
 795 0074 1BE4      		ldi r17,lo8(75)
 796               	.L75:
 221:menu.c        **** 		}
 798               	.LM91:
 799 0076 00E0      		ldi r16,0
 800 0078 00C0      		rjmp .L65
 801               	.L71:
 233:menu.c        **** 		p = 2;
 803               	.LM92:
 804 007a C4E6      		ldi r28,lo8(100)
 805 007c D0E0      		ldi r29,0
 232:menu.c        **** 		d = 100;
 807               	.LM93:
 808 007e 1BE4      		ldi r17,lo8(75)
 234:menu.c        **** 	}
 810               	.LM94:
 811 0080 02E0      		ldi r16,lo8(2)
 812               	.L65:
 241:menu.c        **** 
 242:menu.c        **** 	}
 243:menu.c        **** 	print_u(f/d, p);
 814               	.LM95:
 815 0082 6E01      		movw r12,r28
 816 0084 E12C      		mov r14,__zero_reg__
 817 0086 F12C      		mov r15,__zero_reg__
 818 0088 A701      		movw r20,r14
 819 008a 9601      		movw r18,r12
 820 008c 00D0      		rcall __udivmodsi4
 821 008e CA01      		movw r24,r20
 822 0090 B901      		movw r22,r18
 823 0092 402F      		mov r20,r16
 824 0094 00D0      		rcall print_u
 244:menu.c        **** 	if(pr)
 826               	.LM96:
 827 0096 1123      		tst r17
 828 0098 01F0      		breq .L67
 245:menu.c        **** 		n_putchar(pr);
 830               	.LM97:
 831 009a 812F      		mov r24,r17
 832 009c 00D0      		rcall n_putchar
 833               	.L67:
 246:menu.c        **** 	nnl_puts_P(PSTR("Hz"));
 835               	.LM98:
 836 009e 80E0      		ldi r24,lo8(__c.2136)
 837 00a0 90E0      		ldi r25,hi8(__c.2136)
 838 00a2 00D0      		rcall nnl_puts_P
 247:menu.c        **** 	return d;
 248:menu.c        **** }
 840               	.LM99:
 841 00a4 CE01      		movw r24,r28
 842               	/* epilogue start */
 843 00a6 DF91      		pop r29
 844 00a8 CF91      		pop r28
 845 00aa 1F91      		pop r17
 846 00ac 0F91      		pop r16
 847 00ae FF90      		pop r15
 848 00b0 EF90      		pop r14
 849 00b2 DF90      		pop r13
 850 00b4 CF90      		pop r12
 851 00b6 0895      		ret
 858               	.Lscope7:
 859               		.section	.text.print_on_off,"ax",@progbits
 862               	.global	print_on_off
 864               	print_on_off:
 249:menu.c        **** 
 250:menu.c        **** void print_on_off( uint8_t st)
 251:menu.c        **** {
 866               	.LM100:
 867               	.LFBB8:
 868 0000 CF93      		push r28
 869               	/* prologue: function */
 870               	/* frame size = 0 */
 871               	/* stack size = 1 */
 872               	.L__stack_usage = 1
 873 0002 C82F      		mov r28,r24
 252:menu.c        **** 
 253:menu.c        **** 	lcd_goto(13);
 875               	.LM101:
 876 0004 8DE0      		ldi r24,lo8(13)
 877 0006 00D0      		rcall lcd_goto
 254:menu.c        **** 
 255:menu.c        **** 	if(st)
 879               	.LM102:
 880 0008 CC23      		tst r28
 881 000a 01F0      		breq .L78
 256:menu.c        **** 	{
 257:menu.c        **** 		#ifdef USE_SW_UART
 258:menu.c        **** 			SerialPutChar('\r');
 883               	.LM103:
 884 000c 8DE0      		ldi r24,lo8(13)
 885 000e 00D0      		rcall SerialPutChar
 259:menu.c        **** 		#endif
 260:menu.c        **** 		nnl_puts_P(PSTR("ON \n"));
 887               	.LM104:
 888 0010 80E0      		ldi r24,lo8(__c.2141)
 889 0012 90E0      		ldi r25,hi8(__c.2141)
 890 0014 00C0      		rjmp .L79
 891               	.L78:
 261:menu.c        **** 	}
 262:menu.c        **** 	else
 263:menu.c        **** 		nnl_puts_P(PSTR("OFF\n"));
 893               	.LM105:
 894 0016 80E0      		ldi r24,lo8(__c.2143)
 895 0018 90E0      		ldi r25,hi8(__c.2143)
 896               	.L79:
 897               	/* epilogue start */
 264:menu.c        **** }
 899               	.LM106:
 900 001a CF91      		pop r28
 263:menu.c        **** }
 902               	.LM107:
 903 001c 00C0      		rjmp nnl_puts_P
 905               	.Lscope8:
 906               		.section	.text.input_fd,"ax",@progbits
 910               	.global	input_fd
 912               	input_fd:
 265:menu.c        **** 
 266:menu.c        **** void input_fd(uint32_t* p, uint8_t is_run)
 267:menu.c        **** {
 914               	.LM108:
 915               	.LFBB9:
 916 0000 2F92      		push r2
 917 0002 3F92      		push r3
 918 0004 4F92      		push r4
 919 0006 5F92      		push r5
 920 0008 6F92      		push r6
 921 000a 7F92      		push r7
 922 000c 8F92      		push r8
 923 000e 9F92      		push r9
 924 0010 AF92      		push r10
 925 0012 BF92      		push r11
 926 0014 CF92      		push r12
 927 0016 DF92      		push r13
 928 0018 EF92      		push r14
 929 001a FF92      		push r15
 930 001c 1F93      		push r17
 931 001e CF93      		push r28
 932 0020 DF93      		push r29
 933 0022 00D0      		rcall .
 934 0024 00D0      		rcall .
 935 0026 CDB7      		in r28,__SP_L__
 936 0028 DEB7      		in r29,__SP_H__
 937               	/* prologue: function */
 938               	/* frame size = 4 */
 939               	/* stack size = 21 */
 940               	.L__stack_usage = 21
 941 002a 1C01      		movw r2,r24
 942 002c 162F      		mov r17,r22
 268:menu.c        **** 	uint8_t b;
 269:menu.c        **** 	uint16_t d;
 270:menu.c        **** 	uint32_t multipler;
 271:menu.c        **** 	uint32_t max, f;
 272:menu.c        **** 	
 273:menu.c        **** 	f = *p;
 944               	.LM109:
 945 002e DC01      		movw r26,r24
 946 0030 CD90      		ld r12,X+
 947 0032 DD90      		ld r13,X+
 948 0034 ED90      		ld r14,X+
 949 0036 FC90      		ld r15,X
 274:menu.c        **** 	if(generator.m == M_SQPWM)
 951               	.LM110:
 952 0038 8091 0000 		lds r24,generator
 953 003c 8830      		cpi r24,lo8(8)
 954 003e 01F0      		breq .L90
 275:menu.c        **** 		max = MAXFREQ_PWM;
 276:menu.c        **** 	else if(generator.m == M_SQW)
 956               	.LM111:
 957 0040 8730      		cpi r24,lo8(7)
 958 0042 01F0      		breq .L91
 277:menu.c        **** 		max = MAXFREQ_SQW;
 278:menu.c        **** 	else
 279:menu.c        **** 		max = MAXFREQ_DDS;
 960               	.LM112:
 961 0044 87E0      		ldi r24,lo8(7)
 962 0046 92EB      		ldi r25,lo8(-78)
 963 0048 A1E0      		ldi r26,lo8(1)
 964 004a B0E0      		ldi r27,0
 965 004c 00C0      		rjmp .L96
 966               	.L90:
 275:menu.c        **** 		max = MAXFREQ_PWM;
 968               	.LM113:
 969 004e 80EA      		ldi r24,lo8(-96)
 970 0050 96E8      		ldi r25,lo8(-122)
 971 0052 A1E0      		ldi r26,lo8(1)
 972 0054 B0E0      		ldi r27,0
 973 0056 00C0      		rjmp .L96
 974               	.L91:
 277:menu.c        **** 		max = MAXFREQ_SQW;
 976               	.LM114:
 977 0058 80E2      		ldi r24,lo8(32)
 978 005a 91EA      		ldi r25,lo8(-95)
 979 005c A7E0      		ldi r26,lo8(7)
 980 005e B0E0      		ldi r27,0
 981               	.L96:
 982 0060 8983      		std Y+1,r24
 983 0062 9A83      		std Y+2,r25
 984 0064 AB83      		std Y+3,r26
 985 0066 BC83      		std Y+4,r27
 280:menu.c        **** 
 281:menu.c        **** 	multipler = 0;
 987               	.LM115:
 988 0068 812C      		mov r8,__zero_reg__
 989 006a 912C      		mov r9,__zero_reg__
 990 006c 5401      		movw r10,r8
 991               	.L82:
 282:menu.c        **** 	while(1)
 283:menu.c        **** 	{
 284:menu.c        **** 
 285:menu.c        **** 		nnl_puts_P(PSTR("\rF="));
 993               	.LM116:
 994 006e 80E0      		ldi r24,lo8(__c.2154)
 995 0070 90E0      		ldi r25,hi8(__c.2154)
 996 0072 00D0      		rcall nnl_puts_P
 286:menu.c        **** 		d = print_fq(f);
 998               	.LM117:
 999 0074 C701      		movw r24,r14
 1000 0076 B601      		movw r22,r12
 1001 0078 00D0      		rcall print_fq
 287:menu.c        **** 		f -= f % d;
 1003               	.LM118:
 1004 007a 2C01      		movw r4,r24
 1005 007c 612C      		mov r6,__zero_reg__
 1006 007e 712C      		mov r7,__zero_reg__
 1007 0080 C701      		movw r24,r14
 1008 0082 B601      		movw r22,r12
 1009 0084 A301      		movw r20,r6
 1010 0086 9201      		movw r18,r4
 1011 0088 00D0      		rcall __udivmodsi4
 1012 008a C61A      		sub r12,r22
 1013 008c D70A      		sbc r13,r23
 1014 008e E80A      		sbc r14,r24
 1015 0090 F90A      		sbc r15,r25
 288:menu.c        **** 		if(multipler == 0)
 1017               	.LM119:
 1018 0092 8114      		cp r8,__zero_reg__
 1019 0094 9104      		cpc r9,__zero_reg__
 1020 0096 A104      		cpc r10,__zero_reg__
 1021 0098 B104      		cpc r11,__zero_reg__
 1022 009a 01F4      		brne .L83
 289:menu.c        **** 			multipler = d;
 1024               	.LM120:
 1025 009c 5301      		movw r10,r6
 1026 009e 4201      		movw r8,r4
 1027               	.L83:
 290:menu.c        **** 		
 291:menu.c        **** 		nnl_puts_P(PSTR("\n(+/-) "));
 1029               	.LM121:
 1030 00a0 80E0      		ldi r24,lo8(__c.2156)
 1031 00a2 90E0      		ldi r25,hi8(__c.2156)
 1032 00a4 00D0      		rcall nnl_puts_P
 292:menu.c        **** 		print_fq(multipler);
 1034               	.LM122:
 1035 00a6 C501      		movw r24,r10
 1036 00a8 B401      		movw r22,r8
 1037 00aa 00D0      		rcall print_fq
 293:menu.c        **** 		b = btn_wait();
 1039               	.LM123:
 1040 00ac 00D0      		rcall btn_wait
 294:menu.c        **** 		if(b == BTN_DOWN)
 1042               	.LM124:
 1043 00ae 8130      		cpi r24,lo8(1)
 1044 00b0 01F4      		brne .L84
 295:menu.c        **** 		{
 296:menu.c        **** 			if(f > 1 + multipler )
 1046               	.LM125:
 1047 00b2 D501      		movw r26,r10
 1048 00b4 C401      		movw r24,r8
 1049 00b6 0196      		adiw r24,1
 1050 00b8 A11D      		adc r26,__zero_reg__
 1051 00ba B11D      		adc r27,__zero_reg__
 1052 00bc 8C15      		cp r24,r12
 1053 00be 9D05      		cpc r25,r13
 1054 00c0 AE05      		cpc r26,r14
 1055 00c2 BF05      		cpc r27,r15
 1056 00c4 00F4      		brsh .L85
 297:menu.c        **** 			f-= multipler;
 1058               	.LM126:
 1059 00c6 C818      		sub r12,r8
 1060 00c8 D908      		sbc r13,r9
 1061 00ca EA08      		sbc r14,r10
 1062 00cc FB08      		sbc r15,r11
 1063 00ce 00C0      		rjmp .L85
 1064               	.L84:
 298:menu.c        **** 		}
 299:menu.c        **** 		else if(b == BTN_UP)
 1066               	.LM127:
 1067 00d0 8230      		cpi r24,lo8(2)
 1068 00d2 01F4      		brne .L86
 300:menu.c        **** 		{
 301:menu.c        **** 			if(f < max-multipler )
 1070               	.LM128:
 1071 00d4 8981      		ldd r24,Y+1
 1072 00d6 9A81      		ldd r25,Y+2
 1073 00d8 AB81      		ldd r26,Y+3
 1074 00da BC81      		ldd r27,Y+4
 1075 00dc 8819      		sub r24,r8
 1076 00de 9909      		sbc r25,r9
 1077 00e0 AA09      		sbc r26,r10
 1078 00e2 BB09      		sbc r27,r11
 1079 00e4 C816      		cp r12,r24
 1080 00e6 D906      		cpc r13,r25
 1081 00e8 EA06      		cpc r14,r26
 1082 00ea FB06      		cpc r15,r27
 1083 00ec 00F4      		brsh .L85
 302:menu.c        **** 			f += multipler;
 1085               	.LM129:
 1086 00ee C80C      		add r12,r8
 1087 00f0 D91C      		adc r13,r9
 1088 00f2 EA1C      		adc r14,r10
 1089 00f4 FB1C      		adc r15,r11
 1090 00f6 00C0      		rjmp .L85
 1091               	.L86:
 303:menu.c        **** 		}
 304:menu.c        **** 		else if(b == BTN_MODE)
 1093               	.LM130:
 1094 00f8 8830      		cpi r24,lo8(8)
 1095 00fa 01F4      		brne .L87
 305:menu.c        **** 		{
 306:menu.c        **** 			if(multipler < 100000)
 1097               	.LM131:
 1098 00fc 90EA      		ldi r25,-96
 1099 00fe 8916      		cp r8,r25
 1100 0100 96E8      		ldi r25,-122
 1101 0102 9906      		cpc r9,r25
 1102 0104 91E0      		ldi r25,1
 1103 0106 A906      		cpc r10,r25
 1104 0108 B104      		cpc r11,__zero_reg__
 1105 010a 00F4      		brsh .L92
 307:menu.c        **** 			multipler *= 10;
 1107               	.LM132:
 1108 010c AAE0      		ldi r26,lo8(10)
 1109 010e B0E0      		ldi r27,0
 1110 0110 A501      		movw r20,r10
 1111 0112 9401      		movw r18,r8
 1112 0114 00D0      		rcall __muluhisi3
 1113 0116 4B01      		movw r8,r22
 1114 0118 5C01      		movw r10,r24
 1115 011a 00C0      		rjmp .L85
 1116               	.L87:
 308:menu.c        **** 			else
 309:menu.c        **** 			multipler = d;
 310:menu.c        **** 		}
 311:menu.c        **** 		else if(b == BTN_SET)
 1118               	.LM133:
 1119 011c 8430      		cpi r24,lo8(4)
 1120 011e 01F4      		brne .L85
 1121 0120 00C0      		rjmp .L97
 1122               	.L92:
 309:menu.c        **** 		}
 1124               	.LM134:
 1125 0122 5301      		movw r10,r6
 1126 0124 4201      		movw r8,r4
 1127               	.L85:
 312:menu.c        **** 		{
 313:menu.c        **** 			break;
 314:menu.c        **** 		}
 315:menu.c        **** 
 316:menu.c        **** 		if(generator.m == M_SQPWM && is_run)
 1129               	.LM135:
 1130 0126 8091 0000 		lds r24,generator
 1131 012a 8830      		cpi r24,lo8(8)
 1132 012c 01F0      		breq .+2
 1133 012e 00C0      		rjmp .L82
 1135               	.LM136:
 1136 0130 1123      		tst r17
 1137 0132 01F4      		brne .+2
 1138 0134 00C0      		rjmp .L82
 317:menu.c        **** 			pwm_start(f, generator.pwm_d, 0);
 1140               	.LM137:
 1141 0136 20E0      		ldi r18,0
 1142 0138 4091 0000 		lds r20,generator+29
 1143 013c C701      		movw r24,r14
 1144 013e B601      		movw r22,r12
 1145 0140 00D0      		rcall pwm_start
 1146 0142 00C0      		rjmp .L82
 1147               	.L97:
 318:menu.c        **** 	}
 319:menu.c        **** 	
 320:menu.c        **** 	*p = f;
 1149               	.LM138:
 1150 0144 D101      		movw r26,r2
 1151 0146 CD92      		st X+,r12
 1152 0148 DD92      		st X+,r13
 1153 014a ED92      		st X+,r14
 1154 014c FC92      		st X,r15
 1155 014e 1397      		sbiw r26,3
 1156               	/* epilogue start */
 321:menu.c        **** }
 1158               	.LM139:
 1159 0150 0F90      		pop __tmp_reg__
 1160 0152 0F90      		pop __tmp_reg__
 1161 0154 0F90      		pop __tmp_reg__
 1162 0156 0F90      		pop __tmp_reg__
 1163 0158 DF91      		pop r29
 1164 015a CF91      		pop r28
 1165 015c 1F91      		pop r17
 1166 015e FF90      		pop r15
 1167 0160 EF90      		pop r14
 1168 0162 DF90      		pop r13
 1169 0164 CF90      		pop r12
 1170 0166 BF90      		pop r11
 1171 0168 AF90      		pop r10
 1172 016a 9F90      		pop r9
 1173 016c 8F90      		pop r8
 1174 016e 7F90      		pop r7
 1175 0170 6F90      		pop r6
 1176 0172 5F90      		pop r5
 1177 0174 4F90      		pop r4
 1178 0176 3F90      		pop r3
 1179 0178 2F90      		pop r2
 1180 017a 0895      		ret
 1188               	.Lscope9:
 1189               		.section	.text.input_dc,"ax",@progbits
 1192               	.global	input_dc
 1194               	input_dc:
 322:menu.c        **** 
 323:menu.c        **** inline void input_dc(uint8_t is_run)
 324:menu.c        **** {
 1196               	.LM140:
 1197               	.LFBB10:
 1198 0000 CF93      		push r28
 1199 0002 DF93      		push r29
 1200               	/* prologue: function */
 1201               	/* frame size = 0 */
 1202               	/* stack size = 2 */
 1203               	.L__stack_usage = 2
 1204 0004 D82F      		mov r29,r24
 325:menu.c        **** 	uint8_t b, dc;
 326:menu.c        **** 	dc = generator.pwm_d;
 1206               	.LM141:
 1207 0006 C091 0000 		lds r28,generator+29
 1208               	.L99:
 327:menu.c        **** 	while(1)
 328:menu.c        **** 	{
 329:menu.c        **** 		nnl_puts_P(PSTR("\rDC="));
 1210               	.LM142:
 1211 000a 80E0      		ldi r24,lo8(__c.2165)
 1212 000c 90E0      		ldi r25,hi8(__c.2165)
 1213 000e 00D0      		rcall nnl_puts_P
 330:menu.c        **** 		print_u(dc, 0);
 1215               	.LM143:
 1216 0010 8C2F      		mov r24,r28
 1217 0012 90E0      		ldi r25,0
 1218 0014 A0E0      		ldi r26,0
 1219 0016 B0E0      		ldi r27,0
 1220 0018 40E0      		ldi r20,0
 1221 001a BC01      		movw r22,r24
 1222 001c CD01      		movw r24,r26
 1223 001e 00D0      		rcall print_u
 331:menu.c        **** 		//putchar('%');
 332:menu.c        **** 		nnl_puts_P(PSTR("%\n(+/-) 1% "));
 1225               	.LM144:
 1226 0020 80E0      		ldi r24,lo8(__c.2167)
 1227 0022 90E0      		ldi r25,hi8(__c.2167)
 1228 0024 00D0      		rcall nnl_puts_P
 333:menu.c        **** 		
 334:menu.c        **** 		b = btn_wait();
 1230               	.LM145:
 1231 0026 00D0      		rcall btn_wait
 335:menu.c        **** 		if(b == BTN_DOWN)
 1233               	.LM146:
 1234 0028 8130      		cpi r24,lo8(1)
 1235 002a 01F4      		brne .L100
 336:menu.c        **** 		{
 337:menu.c        **** 			if(dc > 1 )
 1237               	.LM147:
 1238 002c C230      		cpi r28,lo8(2)
 1239 002e 00F0      		brlo .L101
 338:menu.c        **** 			dc -= 1;
 1241               	.LM148:
 1242 0030 C150      		subi r28,lo8(-(-1))
 1243 0032 00C0      		rjmp .L101
 1244               	.L100:
 339:menu.c        **** 		}
 340:menu.c        **** 		else if(b == BTN_UP)
 1246               	.LM149:
 1247 0034 8230      		cpi r24,lo8(2)
 1248 0036 01F4      		brne .L102
 341:menu.c        **** 		{
 342:menu.c        **** 			if(dc < 99 )
 1250               	.LM150:
 1251 0038 C336      		cpi r28,lo8(99)
 1252 003a 00F4      		brsh .L101
 343:menu.c        **** 			dc += 1;
 1254               	.LM151:
 1255 003c CF5F      		subi r28,lo8(-(1))
 1256 003e 00C0      		rjmp .L101
 1257               	.L102:
 344:menu.c        **** 		}
 345:menu.c        **** 		else if(b == BTN_SET)
 1259               	.LM152:
 1260 0040 8430      		cpi r24,lo8(4)
 1261 0042 01F0      		breq .L103
 1262               	.L101:
 346:menu.c        **** 		{
 347:menu.c        **** 			break;
 348:menu.c        **** 		}
 349:menu.c        **** 
 350:menu.c        **** 		if(is_run)
 1264               	.LM153:
 1265 0044 DD23      		tst r29
 1266 0046 01F0      		breq .L99
 351:menu.c        **** 			pwm_start(generator.pwm_f, dc, 0);
 1268               	.LM154:
 1269 0048 6091 0000 		lds r22,generator+25
 1270 004c 7091 0000 		lds r23,generator+25+1
 1271 0050 8091 0000 		lds r24,generator+25+2
 1272 0054 9091 0000 		lds r25,generator+25+3
 1273 0058 20E0      		ldi r18,0
 1274 005a 4C2F      		mov r20,r28
 1275 005c 00D0      		rcall pwm_start
 1276 005e 00C0      		rjmp .L99
 1277               	.L103:
 352:menu.c        **** 	}
 353:menu.c        **** 	generator.pwm_d = dc;	
 1279               	.LM155:
 1280 0060 C093 0000 		sts generator+29,r28
 1281               	/* epilogue start */
 354:menu.c        **** }
 1283               	.LM156:
 1284 0064 DF91      		pop r29
 1285 0066 CF91      		pop r28
 1286 0068 0895      		ret
 1292               	.Lscope10:
 1293               		.section	.text.input_t,"ax",@progbits
 1297               	.global	input_t
 1299               	input_t:
 355:menu.c        **** 
 356:menu.c        **** void input_t(uint32_t* p, const char* title)
 357:menu.c        **** {
 1301               	.LM157:
 1302               	.LFBB11:
 1303 0000 4F92      		push r4
 1304 0002 5F92      		push r5
 1305 0004 6F92      		push r6
 1306 0006 7F92      		push r7
 1307 0008 8F92      		push r8
 1308 000a 9F92      		push r9
 1309 000c AF92      		push r10
 1310 000e BF92      		push r11
 1311 0010 CF92      		push r12
 1312 0012 DF92      		push r13
 1313 0014 EF92      		push r14
 1314 0016 FF92      		push r15
 1315 0018 0F93      		push r16
 1316 001a 1F93      		push r17
 1317 001c CF93      		push r28
 1318 001e DF93      		push r29
 1319               	/* prologue: function */
 1320               	/* frame size = 0 */
 1321               	/* stack size = 16 */
 1322               	.L__stack_usage = 16
 1323 0020 EC01      		movw r28,r24
 1324 0022 8B01      		movw r16,r22
 358:menu.c        **** 	uint8_t b;
 359:menu.c        **** 	uint32_t multipler, t;
 360:menu.c        **** 	
 361:menu.c        **** 	t = *p;
 1326               	.LM158:
 1327 0024 C880      		ld r12,Y
 1328 0026 D980      		ldd r13,Y+1
 1329 0028 EA80      		ldd r14,Y+2
 1330 002a FB80      		ldd r15,Y+3
 362:menu.c        **** 	if(t > MAX_T)
 1332               	.LM159:
 1333 002c 81E4      		ldi r24,65
 1334 002e C816      		cp r12,r24
 1335 0030 82E4      		ldi r24,66
 1336 0032 D806      		cpc r13,r24
 1337 0034 8FE0      		ldi r24,15
 1338 0036 E806      		cpc r14,r24
 1339 0038 F104      		cpc r15,__zero_reg__
 1340 003a 00F0      		brlo .L109
 363:menu.c        **** 		t = MIN_T;
 1342               	.LM160:
 1343 003c 32E0      		ldi r19,lo8(2)
 1344 003e C32E      		mov r12,r19
 1345 0040 D12C      		mov r13,__zero_reg__
 1346 0042 E12C      		mov r14,__zero_reg__
 1347 0044 F12C      		mov r15,__zero_reg__
 1348               	.L109:
 364:menu.c        **** 	
 365:menu.c        **** 	multipler = 1;
 366:menu.c        **** 	while(1)
 367:menu.c        **** 	{
 368:menu.c        **** 		nnl_puts_P(title);
 369:menu.c        **** 		print_u(t,0);
 370:menu.c        **** 		nnl_puts_P(PSTR("us\n(+/-) "));
 371:menu.c        **** 		print_u(multipler,0);
 372:menu.c        **** 		nnl_puts_P(PSTR("us"));
 373:menu.c        **** 		b = btn_wait();
 374:menu.c        **** 		if(b == BTN_DOWN)
 375:menu.c        **** 		{
 376:menu.c        **** 			if(t > MIN_T+multipler )
 377:menu.c        **** 			t-= multipler;
 378:menu.c        **** 		}
 379:menu.c        **** 		else if(b == BTN_UP)
 380:menu.c        **** 		{
 381:menu.c        **** 			if(t < MAX_T-multipler )
 382:menu.c        **** 			t+= multipler;
 383:menu.c        **** 		}
 384:menu.c        **** 		else if(b == BTN_MODE)
 385:menu.c        **** 		{
 386:menu.c        **** 			if(multipler < 1000000)
 387:menu.c        **** 				multipler *= 10;
 388:menu.c        **** 			else
 389:menu.c        **** 				multipler = 1;
 1350               	.LM161:
 1351 0046 412C      		mov r4,__zero_reg__
 1352 0048 512C      		mov r5,__zero_reg__
 1353 004a 3201      		movw r6,r4
 1354 004c 4394      		inc r4
 381:menu.c        **** 			t+= multipler;
 1356               	.LM162:
 1357 004e 20E4      		ldi r18,lo8(64)
 1358 0050 822E      		mov r8,r18
 1359 0052 22E4      		ldi r18,lo8(66)
 1360 0054 922E      		mov r9,r18
 1361 0056 2FE0      		ldi r18,lo8(15)
 1362 0058 A22E      		mov r10,r18
 1363 005a B12C      		mov r11,__zero_reg__
 1364               	.L110:
 368:menu.c        **** 		print_u(t,0);
 1366               	.LM163:
 1367 005c C801      		movw r24,r16
 1368 005e 00D0      		rcall nnl_puts_P
 369:menu.c        **** 		nnl_puts_P(PSTR("us\n(+/-) "));
 1370               	.LM164:
 1371 0060 40E0      		ldi r20,0
 1372 0062 C701      		movw r24,r14
 1373 0064 B601      		movw r22,r12
 1374 0066 00D0      		rcall print_u
 370:menu.c        **** 		print_u(multipler,0);
 1376               	.LM165:
 1377 0068 80E0      		ldi r24,lo8(__c.2178)
 1378 006a 90E0      		ldi r25,hi8(__c.2178)
 1379 006c 00D0      		rcall nnl_puts_P
 371:menu.c        **** 		nnl_puts_P(PSTR("us"));
 1381               	.LM166:
 1382 006e 40E0      		ldi r20,0
 1383 0070 C301      		movw r24,r6
 1384 0072 B201      		movw r22,r4
 1385 0074 00D0      		rcall print_u
 372:menu.c        **** 		b = btn_wait();
 1387               	.LM167:
 1388 0076 80E0      		ldi r24,lo8(__c.2180)
 1389 0078 90E0      		ldi r25,hi8(__c.2180)
 1390 007a 00D0      		rcall nnl_puts_P
 373:menu.c        **** 		if(b == BTN_DOWN)
 1392               	.LM168:
 1393 007c 00D0      		rcall btn_wait
 374:menu.c        **** 		{
 1395               	.LM169:
 1396 007e 8130      		cpi r24,lo8(1)
 1397 0080 01F4      		brne .L111
 376:menu.c        **** 			t-= multipler;
 1399               	.LM170:
 1400 0082 D301      		movw r26,r6
 1401 0084 C201      		movw r24,r4
 1402 0086 0296      		adiw r24,2
 1403 0088 A11D      		adc r26,__zero_reg__
 1404 008a B11D      		adc r27,__zero_reg__
 1405 008c 8C15      		cp r24,r12
 1406 008e 9D05      		cpc r25,r13
 1407 0090 AE05      		cpc r26,r14
 1408 0092 BF05      		cpc r27,r15
 1409 0094 00F4      		brsh .L110
 377:menu.c        **** 		}
 1411               	.LM171:
 1412 0096 C418      		sub r12,r4
 1413 0098 D508      		sbc r13,r5
 1414 009a E608      		sbc r14,r6
 1415 009c F708      		sbc r15,r7
 1416 009e 00C0      		rjmp .L110
 1417               	.L111:
 379:menu.c        **** 		{
 1419               	.LM172:
 1420 00a0 8230      		cpi r24,lo8(2)
 1421 00a2 01F4      		brne .L113
 381:menu.c        **** 			t+= multipler;
 1423               	.LM173:
 1424 00a4 D501      		movw r26,r10
 1425 00a6 C401      		movw r24,r8
 1426 00a8 8419      		sub r24,r4
 1427 00aa 9509      		sbc r25,r5
 1428 00ac A609      		sbc r26,r6
 1429 00ae B709      		sbc r27,r7
 1430 00b0 C816      		cp r12,r24
 1431 00b2 D906      		cpc r13,r25
 1432 00b4 EA06      		cpc r14,r26
 1433 00b6 FB06      		cpc r15,r27
 1434 00b8 00F4      		brsh .L110
 382:menu.c        **** 		}
 1436               	.LM174:
 1437 00ba C40C      		add r12,r4
 1438 00bc D51C      		adc r13,r5
 1439 00be E61C      		adc r14,r6
 1440 00c0 F71C      		adc r15,r7
 1441 00c2 00C0      		rjmp .L110
 1442               	.L113:
 384:menu.c        **** 		{
 1444               	.LM175:
 1445 00c4 8830      		cpi r24,lo8(8)
 1446 00c6 01F4      		brne .L114
 386:menu.c        **** 				multipler *= 10;
 1448               	.LM176:
 1449 00c8 80E4      		ldi r24,64
 1450 00ca 4816      		cp r4,r24
 1451 00cc 82E4      		ldi r24,66
 1452 00ce 5806      		cpc r5,r24
 1453 00d0 8FE0      		ldi r24,15
 1454 00d2 6806      		cpc r6,r24
 1455 00d4 7104      		cpc r7,__zero_reg__
 1456 00d6 00F0      		brlo .L116
 1458               	.LM177:
 1459 00d8 412C      		mov r4,__zero_reg__
 1460 00da 512C      		mov r5,__zero_reg__
 1461 00dc 3201      		movw r6,r4
 1462 00de 4394      		inc r4
 1463 00e0 00C0      		rjmp .L110
 1464               	.L116:
 387:menu.c        **** 			else
 1466               	.LM178:
 1467 00e2 AAE0      		ldi r26,lo8(10)
 1468 00e4 B0E0      		ldi r27,0
 1469 00e6 A301      		movw r20,r6
 1470 00e8 9201      		movw r18,r4
 1471 00ea 00D0      		rcall __muluhisi3
 1472 00ec 2B01      		movw r4,r22
 1473 00ee 3C01      		movw r6,r24
 1474 00f0 00C0      		rjmp .L110
 1475               	.L114:
 390:menu.c        **** 		}
 391:menu.c        **** 		else if(b == BTN_SET)
 1477               	.LM179:
 1478 00f2 8430      		cpi r24,lo8(4)
 1479 00f4 01F0      		breq .+2
 1480 00f6 00C0      		rjmp .L110
 392:menu.c        **** 		{
 393:menu.c        **** 			break;
 394:menu.c        **** 		}
 395:menu.c        **** 
 396:menu.c        **** 	}
 397:menu.c        **** 	*p = t;
 1482               	.LM180:
 1483 00f8 C882      		st Y,r12
 1484 00fa D982      		std Y+1,r13
 1485 00fc EA82      		std Y+2,r14
 1486 00fe FB82      		std Y+3,r15
 1487               	/* epilogue start */
 398:menu.c        **** }
 1489               	.LM181:
 1490 0100 DF91      		pop r29
 1491 0102 CF91      		pop r28
 1492 0104 1F91      		pop r17
 1493 0106 0F91      		pop r16
 1494 0108 FF90      		pop r15
 1495 010a EF90      		pop r14
 1496 010c DF90      		pop r13
 1497 010e CF90      		pop r12
 1498 0110 BF90      		pop r11
 1499 0112 AF90      		pop r10
 1500 0114 9F90      		pop r9
 1501 0116 8F90      		pop r8
 1502 0118 7F90      		pop r7
 1503 011a 6F90      		pop r6
 1504 011c 5F90      		pop r5
 1505 011e 4F90      		pop r4
 1506 0120 0895      		ret
 1513               	.Lscope11:
 1514               		.section	.text.input_n,"ax",@progbits
 1516               	.global	input_n
 1518               	input_n:
 399:menu.c        **** 
 400:menu.c        **** inline void input_n()
 401:menu.c        **** {
 1520               	.LM182:
 1521               	.LFBB12:
 1522 0000 FF92      		push r15
 1523 0002 0F93      		push r16
 1524 0004 1F93      		push r17
 1525 0006 CF93      		push r28
 1526 0008 DF93      		push r29
 1527               	/* prologue: function */
 1528               	/* frame size = 0 */
 1529               	/* stack size = 5 */
 1530               	.L__stack_usage = 5
 402:menu.c        **** 	uint8_t b;
 403:menu.c        **** 	uint16_t multipler, n;
 404:menu.c        **** 
 405:menu.c        **** 
 406:menu.c        **** 	n = generator.pulse_n;
 1532               	.LM183:
 1533 000a C091 0000 		lds r28,generator+51
 1534 000e D091 0000 		lds r29,generator+51+1
 407:menu.c        **** 	multipler = 1;
 1536               	.LM184:
 1537 0012 01E0      		ldi r16,lo8(1)
 1538 0014 10E0      		ldi r17,0
 408:menu.c        **** 	while(1)
 409:menu.c        **** 	{
 410:menu.c        **** 		nnl_puts_P(PSTR("\rN="));
 411:menu.c        **** 		if(n != 0)
 412:menu.c        **** 			print_u(n,0);
 413:menu.c        **** 		else
 414:menu.c        **** 			nnl_puts_P(PSTR("ND"));
 415:menu.c        **** 		nnl_puts_P(PSTR("\n(+/-) "));
 416:menu.c        **** 		print_u(multipler,0);
 417:menu.c        **** 
 418:menu.c        **** 		b = btn_wait();
 419:menu.c        **** 		if(b == BTN_DOWN)
 420:menu.c        **** 		{
 421:menu.c        **** 			if(n >= multipler )
 422:menu.c        **** 				n-= multipler;
 423:menu.c        **** 		}
 424:menu.c        **** 		else if(b == BTN_UP)
 425:menu.c        **** 		{
 426:menu.c        **** 			if(n < 0xFFFF-multipler )
 427:menu.c        **** 			n += multipler;
 428:menu.c        **** 		}
 429:menu.c        **** 		else if(b == BTN_MODE)
 430:menu.c        **** 		{
 431:menu.c        **** 			if(multipler < 10000)
 432:menu.c        **** 			multipler *= 10;
 1540               	.LM185:
 1541 0016 8AE0      		ldi r24,lo8(10)
 1542 0018 F82E      		mov r15,r24
 1543               	.L118:
 410:menu.c        **** 		if(n != 0)
 1545               	.LM186:
 1546 001a 80E0      		ldi r24,lo8(__c.2189)
 1547 001c 90E0      		ldi r25,hi8(__c.2189)
 1548 001e 00D0      		rcall nnl_puts_P
 411:menu.c        **** 			print_u(n,0);
 1550               	.LM187:
 1551 0020 2097      		sbiw r28,0
 1552 0022 01F0      		breq .L119
 412:menu.c        **** 		else
 1554               	.LM188:
 1555 0024 CE01      		movw r24,r28
 1556 0026 A0E0      		ldi r26,0
 1557 0028 B0E0      		ldi r27,0
 1558 002a 40E0      		ldi r20,0
 1559 002c BC01      		movw r22,r24
 1560 002e CD01      		movw r24,r26
 1561 0030 00D0      		rcall print_u
 1562 0032 00C0      		rjmp .L120
 1563               	.L119:
 414:menu.c        **** 		nnl_puts_P(PSTR("\n(+/-) "));
 1565               	.LM189:
 1566 0034 80E0      		ldi r24,lo8(__c.2191)
 1567 0036 90E0      		ldi r25,hi8(__c.2191)
 1568 0038 00D0      		rcall nnl_puts_P
 1569               	.L120:
 415:menu.c        **** 		print_u(multipler,0);
 1571               	.LM190:
 1572 003a 80E0      		ldi r24,lo8(__c.2193)
 1573 003c 90E0      		ldi r25,hi8(__c.2193)
 1574 003e 00D0      		rcall nnl_puts_P
 416:menu.c        **** 
 1576               	.LM191:
 1577 0040 C801      		movw r24,r16
 1578 0042 A0E0      		ldi r26,0
 1579 0044 B0E0      		ldi r27,0
 1580 0046 40E0      		ldi r20,0
 1581 0048 BC01      		movw r22,r24
 1582 004a CD01      		movw r24,r26
 1583 004c 00D0      		rcall print_u
 418:menu.c        **** 		if(b == BTN_DOWN)
 1585               	.LM192:
 1586 004e 00D0      		rcall btn_wait
 419:menu.c        **** 		{
 1588               	.LM193:
 1589 0050 8130      		cpi r24,lo8(1)
 1590 0052 01F4      		brne .L121
 421:menu.c        **** 				n-= multipler;
 1592               	.LM194:
 1593 0054 C017      		cp r28,r16
 1594 0056 D107      		cpc r29,r17
 1595 0058 00F0      		brlo .L118
 422:menu.c        **** 		}
 1597               	.LM195:
 1598 005a C01B      		sub r28,r16
 1599 005c D10B      		sbc r29,r17
 1600 005e 00C0      		rjmp .L118
 1601               	.L121:
 424:menu.c        **** 		{
 1603               	.LM196:
 1604 0060 8230      		cpi r24,lo8(2)
 1605 0062 01F4      		brne .L123
 426:menu.c        **** 			n += multipler;
 1607               	.LM197:
 1608 0064 C801      		movw r24,r16
 1609 0066 8095      		com r24
 1610 0068 9095      		com r25
 1611 006a C817      		cp r28,r24
 1612 006c D907      		cpc r29,r25
 1613 006e 00F4      		brsh .L118
 427:menu.c        **** 		}
 1615               	.LM198:
 1616 0070 C00F      		add r28,r16
 1617 0072 D11F      		adc r29,r17
 1618 0074 00C0      		rjmp .L118
 1619               	.L123:
 429:menu.c        **** 		{
 1621               	.LM199:
 1622 0076 8830      		cpi r24,lo8(8)
 1623 0078 01F4      		brne .L124
 431:menu.c        **** 			multipler *= 10;
 1625               	.LM200:
 1626 007a 0031      		cpi r16,16
 1627 007c 87E2      		ldi r24,39
 1628 007e 1807      		cpc r17,r24
 1629 0080 00F0      		brlo .L126
 433:menu.c        **** 			else
 434:menu.c        **** 			multipler = 1;
 1631               	.LM201:
 1632 0082 01E0      		ldi r16,lo8(1)
 1633 0084 10E0      		ldi r17,0
 1634 0086 00C0      		rjmp .L118
 1635               	.L126:
 432:menu.c        **** 			else
 1637               	.LM202:
 1638 0088 C801      		movw r24,r16
 1639 008a F89E      		mul r15,r24
 1640 008c 8001      		movw r16,r0
 1641 008e F99E      		mul r15,r25
 1642 0090 100D      		add r17,r0
 1643 0092 1124      		clr __zero_reg__
 1644 0094 00C0      		rjmp .L118
 1645               	.L124:
 435:menu.c        **** 		}
 436:menu.c        **** 		else if(b == BTN_SET)
 1647               	.LM203:
 1648 0096 8430      		cpi r24,lo8(4)
 1649 0098 01F0      		breq .+2
 1650 009a 00C0      		rjmp .L118
 437:menu.c        **** 		{
 438:menu.c        **** 			break;
 439:menu.c        **** 		}
 440:menu.c        **** 
 441:menu.c        **** 	}
 442:menu.c        **** 	generator.pulse_n = n; 	
 1652               	.LM204:
 1653 009c D093 0000 		sts generator+51+1,r29
 1654 00a0 C093 0000 		sts generator+51,r28
 1655               	/* epilogue start */
 443:menu.c        **** }
 1657               	.LM205:
 1658 00a4 DF91      		pop r29
 1659 00a6 CF91      		pop r28
 1660 00a8 1F91      		pop r17
 1661 00aa 0F91      		pop r16
 1662 00ac FF90      		pop r15
 1663 00ae 0895      		ret
 1670               	.Lscope12:
 1671               		.section	.text.select_val,"ax",@progbits
 1676               	.global	select_val
 1678               	select_val:
 444:menu.c        **** 
 445:menu.c        **** 
 446:menu.c        **** uint8_t select_val(const char* t, const char* v[], uint8_t n)
 447:menu.c        **** {
 1680               	.LM206:
 1681               	.LFBB13:
 1682 0000 AF92      		push r10
 1683 0002 BF92      		push r11
 1684 0004 CF92      		push r12
 1685 0006 DF92      		push r13
 1686 0008 EF92      		push r14
 1687 000a FF92      		push r15
 1688 000c 0F93      		push r16
 1689 000e 1F93      		push r17
 1690 0010 CF93      		push r28
 1691               	/* prologue: function */
 1692               	/* frame size = 0 */
 1693               	/* stack size = 9 */
 1694               	.L__stack_usage = 9
 1695 0012 7C01      		movw r14,r24
 1696 0014 6B01      		movw r12,r22
 448:menu.c        **** 	uint8_t b, i;
 449:menu.c        **** 	
 450:menu.c        **** 	i = 0;
 1698               	.LM207:
 1699 0016 C0E0      		ldi r28,0
 451:menu.c        **** 	
 452:menu.c        **** 	while(1)
 453:menu.c        **** 	{
 454:menu.c        **** 		nnl_puts_P(t);
 455:menu.c        **** 		nnl_puts_P(v[i]);	
 456:menu.c        **** 		b = btn_wait();
 457:menu.c        **** 		if(b == BTN_DOWN)
 458:menu.c        **** 		{
 459:menu.c        **** 			if(i > 0)
 460:menu.c        **** 				i--;
 461:menu.c        **** 		}
 462:menu.c        **** 		else if(b == BTN_UP)
 463:menu.c        **** 		{
 464:menu.c        **** 			if(i < n-1)
 1701               	.LM208:
 1702 0018 042F      		mov r16,r20
 1703 001a 10E0      		ldi r17,0
 1704 001c 0150      		subi r16,1
 1705 001e 1109      		sbc r17,__zero_reg__
 1706               	.L128:
 454:menu.c        **** 		nnl_puts_P(v[i]);	
 1708               	.LM209:
 1709 0020 C701      		movw r24,r14
 1710 0022 00D0      		rcall nnl_puts_P
 455:menu.c        **** 		b = btn_wait();
 1712               	.LM210:
 1713 0024 AC2E      		mov r10,r28
 1714 0026 B12C      		mov r11,__zero_reg__
 1715 0028 F501      		movw r30,r10
 1716 002a EE0F      		lsl r30
 1717 002c FF1F      		rol r31
 1718 002e EC0D      		add r30,r12
 1719 0030 FD1D      		adc r31,r13
 1720 0032 8081      		ld r24,Z
 1721 0034 9181      		ldd r25,Z+1
 1722 0036 00D0      		rcall nnl_puts_P
 456:menu.c        **** 		if(b == BTN_DOWN)
 1724               	.LM211:
 1725 0038 00D0      		rcall btn_wait
 457:menu.c        **** 		{
 1727               	.LM212:
 1728 003a 8130      		cpi r24,lo8(1)
 1729 003c 01F4      		brne .L129
 459:menu.c        **** 				i--;
 1731               	.LM213:
 1732 003e CC23      		tst r28
 1733 0040 01F0      		breq .L128
 460:menu.c        **** 		}
 1735               	.LM214:
 1736 0042 C150      		subi r28,lo8(-(-1))
 1737 0044 00C0      		rjmp .L128
 1738               	.L129:
 462:menu.c        **** 		{
 1740               	.LM215:
 1741 0046 8230      		cpi r24,lo8(2)
 1742 0048 01F4      		brne .L131
 1744               	.LM216:
 1745 004a A016      		cp r10,r16
 1746 004c B106      		cpc r11,r17
 1747 004e 04F4      		brge .L128
 465:menu.c        **** 			i++;
 1749               	.LM217:
 1750 0050 CF5F      		subi r28,lo8(-(1))
 1751 0052 00C0      		rjmp .L128
 1752               	.L131:
 466:menu.c        **** 		}
 467:menu.c        **** 		else if(b == BTN_SET)
 1754               	.LM218:
 1755 0054 8430      		cpi r24,lo8(4)
 1756 0056 01F4      		brne .L128
 468:menu.c        **** 		{
 469:menu.c        **** 			break;
 470:menu.c        **** 		}
 471:menu.c        **** 
 472:menu.c        **** 	}
 473:menu.c        **** 	return i;
 474:menu.c        **** }
 1758               	.LM219:
 1759 0058 8C2F      		mov r24,r28
 1760               	/* epilogue start */
 1761 005a CF91      		pop r28
 1762 005c 1F91      		pop r17
 1763 005e 0F91      		pop r16
 1764 0060 FF90      		pop r15
 1765 0062 EF90      		pop r14
 1766 0064 DF90      		pop r13
 1767 0066 CF90      		pop r12
 1768 0068 BF90      		pop r11
 1769 006a AF90      		pop r10
 1770 006c 0895      		ret
 1776               	.Lscope13:
 1777               		.section	.text.input_trig,"ax",@progbits
 1779               	.global	input_trig
 1781               	input_trig:
 475:menu.c        **** 
 476:menu.c        **** inline uint8_t input_trig()
 477:menu.c        **** {
 1783               	.LM220:
 1784               	.LFBB14:
 1785 0000 CF93      		push r28
 1786 0002 DF93      		push r29
 1787 0004 00D0      		rcall .
 1788 0006 00D0      		rcall .
 1789 0008 00D0      		rcall .
 1790 000a CDB7      		in r28,__SP_L__
 1791 000c DEB7      		in r29,__SP_H__
 1792               	/* prologue: function */
 1793               	/* frame size = 6 */
 1794               	/* stack size = 8 */
 1795               	.L__stack_usage = 8
 478:menu.c        **** 	const char* values[] = {
 1797               	.LM221:
 1798 000e 80E0      		ldi r24,lo8(__c.2209)
 1799 0010 90E0      		ldi r25,hi8(__c.2209)
 1800 0012 9A83      		std Y+2,r25
 1801 0014 8983      		std Y+1,r24
 1802 0016 80E0      		ldi r24,lo8(__c.2211)
 1803 0018 90E0      		ldi r25,hi8(__c.2211)
 1804 001a 9C83      		std Y+4,r25
 1805 001c 8B83      		std Y+3,r24
 1806 001e 80E0      		ldi r24,lo8(__c.2213)
 1807 0020 90E0      		ldi r25,hi8(__c.2213)
 1808 0022 9E83      		std Y+6,r25
 1809 0024 8D83      		std Y+5,r24
 479:menu.c        **** 		PSTR("NO"),
 480:menu.c        **** 		PSTR("RISE "),
 481:menu.c        **** 		PSTR("FALL ")
 482:menu.c        **** 	};
 483:menu.c        **** 	
 484:menu.c        **** 	return select_val(PSTR("\rTrigger: "), values, 3);
 1811               	.LM222:
 1812 0026 43E0      		ldi r20,lo8(3)
 1813 0028 BE01      		movw r22,r28
 1814 002a 6F5F      		subi r22,-1
 1815 002c 7F4F      		sbci r23,-1
 1816 002e 80E0      		ldi r24,lo8(__c.2215)
 1817 0030 90E0      		ldi r25,hi8(__c.2215)
 1818 0032 00D0      		rcall select_val
 1819               	/* epilogue start */
 485:menu.c        **** }
 1821               	.LM223:
 1822 0034 2696      		adiw r28,6
 1823 0036 0FB6      		in __tmp_reg__,__SREG__
 1824 0038 F894      		cli
 1825 003a DEBF      		out __SP_H__,r29
 1826 003c 0FBE      		out __SREG__,__tmp_reg__
 1827 003e CDBF      		out __SP_L__,r28
 1828 0040 DF91      		pop r29
 1829 0042 CF91      		pop r28
 1830 0044 0895      		ret
 1835               	.Lscope14:
 1836               		.section	.text.input_ext_sync,"ax",@progbits
 1838               	.global	input_ext_sync
 1840               	input_ext_sync:
 486:menu.c        **** 
 487:menu.c        **** inline uint8_t input_ext_sync()
 488:menu.c        **** {
 1842               	.LM224:
 1843               	.LFBB15:
 1844 0000 CF93      		push r28
 1845 0002 DF93      		push r29
 1846 0004 00D0      		rcall .
 1847 0006 00D0      		rcall .
 1848 0008 00D0      		rcall .
 1849 000a CDB7      		in r28,__SP_L__
 1850 000c DEB7      		in r29,__SP_H__
 1851               	/* prologue: function */
 1852               	/* frame size = 6 */
 1853               	/* stack size = 8 */
 1854               	.L__stack_usage = 8
 489:menu.c        **** 	const char* values[] = {
 1856               	.LM225:
 1857 000e 80E0      		ldi r24,lo8(__c.2220)
 1858 0010 90E0      		ldi r25,hi8(__c.2220)
 1859 0012 9A83      		std Y+2,r25
 1860 0014 8983      		std Y+1,r24
 1861 0016 80E0      		ldi r24,lo8(__c.2222)
 1862 0018 90E0      		ldi r25,hi8(__c.2222)
 1863 001a 9C83      		std Y+4,r25
 1864 001c 8B83      		std Y+3,r24
 1865 001e 80E0      		ldi r24,lo8(__c.2224)
 1866 0020 90E0      		ldi r25,hi8(__c.2224)
 1867 0022 9E83      		std Y+6,r25
 1868 0024 8D83      		std Y+5,r24
 490:menu.c        **** 		PSTR("NO"),
 491:menu.c        **** 		PSTR("HIGH"),
 492:menu.c        **** 		PSTR("LOW")
 493:menu.c        **** 	};
 494:menu.c        **** 	
 495:menu.c        **** 	return select_val(PSTR("\rEXT SYNC: "), values, 3);
 1870               	.LM226:
 1871 0026 43E0      		ldi r20,lo8(3)
 1872 0028 BE01      		movw r22,r28
 1873 002a 6F5F      		subi r22,-1
 1874 002c 7F4F      		sbci r23,-1
 1875 002e 80E0      		ldi r24,lo8(__c.2226)
 1876 0030 90E0      		ldi r25,hi8(__c.2226)
 1877 0032 00D0      		rcall select_val
 1878               	/* epilogue start */
 496:menu.c        **** }
 1880               	.LM227:
 1881 0034 2696      		adiw r28,6
 1882 0036 0FB6      		in __tmp_reg__,__SREG__
 1883 0038 F894      		cli
 1884 003a DEBF      		out __SP_H__,r29
 1885 003c 0FBE      		out __SREG__,__tmp_reg__
 1886 003e CDBF      		out __SP_L__,r28
 1887 0040 DF91      		pop r29
 1888 0042 CF91      		pop r28
 1889 0044 0895      		ret
 1894               	.Lscope15:
 1895               		.section	.text.input_hs,"ax",@progbits
 1897               	.global	input_hs
 1899               	input_hs:
 497:menu.c        **** 
 498:menu.c        **** void input_hs()
 499:menu.c        **** {
 1901               	.LM228:
 1902               	.LFBB16:
 1903 0000 CF93      		push r28
 1904 0002 DF93      		push r29
 1905 0004 CDB7      		in r28,__SP_L__
 1906 0006 DEB7      		in r29,__SP_H__
 1907 0008 2897      		sbiw r28,8
 1908 000a 0FB6      		in __tmp_reg__,__SREG__
 1909 000c F894      		cli
 1910 000e DEBF      		out __SP_H__,r29
 1911 0010 0FBE      		out __SREG__,__tmp_reg__
 1912 0012 CDBF      		out __SP_L__,r28
 1913               	/* prologue: function */
 1914               	/* frame size = 8 */
 1915               	/* stack size = 10 */
 1916               	.L__stack_usage = 10
 500:menu.c        **** 	const char* values[] = {
 1918               	.LM229:
 1919 0014 80E0      		ldi r24,lo8(__c.2231)
 1920 0016 90E0      		ldi r25,hi8(__c.2231)
 1921 0018 9A83      		std Y+2,r25
 1922 001a 8983      		std Y+1,r24
 1923 001c 80E0      		ldi r24,lo8(__c.2233)
 1924 001e 90E0      		ldi r25,hi8(__c.2233)
 1925 0020 9C83      		std Y+4,r25
 1926 0022 8B83      		std Y+3,r24
 1927 0024 80E0      		ldi r24,lo8(__c.2235)
 1928 0026 90E0      		ldi r25,hi8(__c.2235)
 1929 0028 9E83      		std Y+6,r25
 1930 002a 8D83      		std Y+5,r24
 1931 002c 80E0      		ldi r24,lo8(__c.2237)
 1932 002e 90E0      		ldi r25,hi8(__c.2237)
 1933 0030 9887      		std Y+8,r25
 1934 0032 8F83      		std Y+7,r24
 501:menu.c        **** 		PSTR("1MHz"),
 502:menu.c        **** 		PSTR("2MHz"),
 503:menu.c        **** 		PSTR("4MHz"),
 504:menu.c        **** 		PSTR("8MHz")
 505:menu.c        **** 	};	
 506:menu.c        **** 
 507:menu.c        **** 	uint8_t  f;
 508:menu.c        **** 	
 509:menu.c        **** 	f = 1<<select_val(PSTR("\rF="), values, 4);
 1936               	.LM230:
 1937 0034 44E0      		ldi r20,lo8(4)
 1938 0036 BE01      		movw r22,r28
 1939 0038 6F5F      		subi r22,-1
 1940 003a 7F4F      		sbci r23,-1
 1941 003c 80E0      		ldi r24,lo8(__c.2240)
 1942 003e 90E0      		ldi r25,hi8(__c.2240)
 1943 0040 00D0      		rcall select_val
 510:menu.c        **** 	generator.hs_f = (uint32_t)(1000000 * f);
 1945               	.LM231:
 1946 0042 A1E0      		ldi r26,lo8(1)
 1947 0044 00C0      		rjmp 2f
 1948               		1:
 1949 0046 AA0F      		lsl r26
 1950               		2:
 1951 0048 8A95      		dec r24
 1952 004a 02F4      		brpl 1b
 1953 004c B0E0      		ldi r27,0
 1954 004e 20E4      		ldi r18,lo8(64)
 1955 0050 32E4      		ldi r19,lo8(66)
 1956 0052 4FE0      		ldi r20,lo8(15)
 1957 0054 50E0      		ldi r21,0
 1958 0056 00D0      		rcall __muluhisi3
 1959 0058 6093 0000 		sts generator+31,r22
 1960 005c 7093 0000 		sts generator+31+1,r23
 1961 0060 8093 0000 		sts generator+31+2,r24
 1962 0064 9093 0000 		sts generator+31+3,r25
 1963               	/* epilogue start */
 511:menu.c        **** 
 512:menu.c        **** }...
 1965               	.LM232:
 1966 0068 2896      		adiw r28,8
 1967 006a 0FB6      		in __tmp_reg__,__SREG__
 1968 006c F894      		cli
 1969 006e DEBF      		out __SP_H__,r29
 1970 0070 0FBE      		out __SREG__,__tmp_reg__
 1971 0072 CDBF      		out __SP_L__,r28
 1972 0074 DF91      		pop r29
 1973 0076 CF91      		pop r28
 1974 0078 0895      		ret
 1979               	.Lscope16:
 1980               		.section	.progmem.data.__c.2240,"a",@progbits
 1983               	__c.2240:
 1984 0000 0D46 3D00 		.string	"\rF="
 1985               		.section	.progmem.data.__c.2237,"a",@progbits
 1988               	__c.2237:
 1989 0000 384D 487A 		.string	"8MHz"
 1989      00
 1990               		.section	.progmem.data.__c.2235,"a",@progbits
 1993               	__c.2235:
 1994 0000 344D 487A 		.string	"4MHz"
 1994      00
 1995               		.section	.progmem.data.__c.2233,"a",@progbits
 1998               	__c.2233:
 1999 0000 324D 487A 		.string	"2MHz"
 1999      00
 2000               		.section	.progmem.data.__c.2231,"a",@progbits
 2003               	__c.2231:
 2004 0000 314D 487A 		.string	"1MHz"
 2004      00
 2005               		.section	.progmem.data.__c.2226,"a",@progbits
 2008               	__c.2226:
 2009 0000 0D45 5854 		.string	"\rEXT SYNC: "
 2009      2053 594E 
 2009      433A 2000 
 2010               		.section	.progmem.data.__c.2224,"a",@progbits
 2013               	__c.2224:
 2014 0000 4C4F 5700 		.string	"LOW"
 2015               		.section	.progmem.data.__c.2222,"a",@progbits
 2018               	__c.2222:
 2019 0000 4849 4748 		.string	"HIGH"
 2019      00
 2020               		.section	.progmem.data.__c.2220,"a",@progbits
 2023               	__c.2220:
 2024 0000 4E4F 00   		.string	"NO"
 2025               		.section	.progmem.data.__c.2215,"a",@progbits
 2028               	__c.2215:
 2029 0000 0D54 7269 		.string	"\rTrigger: "
 2029      6767 6572 
 2029      3A20 00
 2030               		.section	.progmem.data.__c.2213,"a",@progbits
 2033               	__c.2213:
 2034 0000 4641 4C4C 		.string	"FALL "
 2034      2000 
 2035               		.section	.progmem.data.__c.2211,"a",@progbits
 2038               	__c.2211:
 2039 0000 5249 5345 		.string	"RISE "
 2039      2000 
 2040               		.section	.progmem.data.__c.2209,"a",@progbits
 2043               	__c.2209:
 2044 0000 4E4F 00   		.string	"NO"
 2045               		.section	.progmem.data.__c.2193,"a",@progbits
 2048               	__c.2193:
 2049 0000 0A28 2B2F 		.string	"\n(+/-) "
 2049      2D29 2000 
 2050               		.section	.progmem.data.__c.2191,"a",@progbits
 2053               	__c.2191:
 2054 0000 4E44 00   		.string	"ND"
 2055               		.section	.progmem.data.__c.2189,"a",@progbits
 2058               	__c.2189:
 2059 0000 0D4E 3D00 		.string	"\rN="
 2060               		.section	.progmem.data.__c.2180,"a",@progbits
 2063               	__c.2180:
 2064 0000 7573 00   		.string	"us"
 2065               		.section	.progmem.data.__c.2178,"a",@progbits
 2068               	__c.2178:
 2069 0000 7573 0A28 		.string	"us\n(+/-) "
 2069      2B2F 2D29 
 2069      2000 
 2070               		.section	.progmem.data.__c.2167,"a",@progbits
 2073               	__c.2167:
 2074 0000 250A 282B 		.string	"%\n(+/-) 1% "
 2074      2F2D 2920 
 2074      3125 2000 
 2075               		.section	.progmem.data.__c.2165,"a",@progbits
 2078               	__c.2165:
 2079 0000 0D44 433D 		.string	"\rDC="
 2079      00
 2080               		.section	.progmem.data.__c.2156,"a",@progbits
 2083               	__c.2156:
 2084 0000 0A28 2B2F 		.string	"\n(+/-) "
 2084      2D29 2000 
 2085               		.section	.progmem.data.__c.2154,"a",@progbits
 2088               	__c.2154:
 2089 0000 0D46 3D00 		.string	"\rF="
 2090               		.section	.progmem.data.__c.2143,"a",@progbits
 2093               	__c.2143:
 2094 0000 4F46 460A 		.string	"OFF\n"
 2094      00
 2095               		.section	.progmem.data.__c.2141,"a",@progbits
 2098               	__c.2141:
 2099 0000 4F4E 200A 		.string	"ON \n"
 2099      00
 2100               		.section	.progmem.data.__c.2136,"a",@progbits
 2103               	__c.2136:
 2104 0000 487A 00   		.string	"Hz"
 2105               		.section	.bss.msk.2099,"aw",@nobits
 2108               	msk.2099:
 2109 0000 00        		.zero	1
 2110               		.section	.bss.st.2098,"aw",@nobits
 2113               	st.2098:
 2114 0000 00        		.zero	1
 2115               		.section	.bss.c.2100,"aw",@nobits
 2118               	c.2100:
 2119 0000 00        		.zero	1
 2120               		.comm	generator,55,1
 2122               		.text
 2124               	.Letext0:
 2125               		.ident	"GCC: (AVR_8_bit_GNU_Toolchain_3.5.0_1662) 4.9.2"
 2126               	.global __do_clear_bss
DEFINED SYMBOLS
                            *ABS*:00000000 menu.c
C:\Users\Magenta\AppData\Local\Temp\ccKXyMrW.s:2      *ABS*:0000003e __SP_H__
C:\Users\Magenta\AppData\Local\Temp\ccKXyMrW.s:3      *ABS*:0000003d __SP_L__
C:\Users\Magenta\AppData\Local\Temp\ccKXyMrW.s:4      *ABS*:0000003f __SREG__
C:\Users\Magenta\AppData\Local\Temp\ccKXyMrW.s:5      *ABS*:00000000 __tmp_reg__
C:\Users\Magenta\AppData\Local\Temp\ccKXyMrW.s:6      *ABS*:00000001 __zero_reg__
C:\Users\Magenta\AppData\Local\Temp\ccKXyMrW.s:133    .text.n_putchar:00000000 n_putchar
C:\Users\Magenta\AppData\Local\Temp\ccKXyMrW.s:186    .text.nnl_puts_P:00000000 nnl_puts_P
C:\Users\Magenta\AppData\Local\Temp\ccKXyMrW.s:233    .text.btnCheckAll:00000000 btnCheckAll
C:\Users\Magenta\AppData\Local\Temp\ccKXyMrW.s:281    .text.btn_wait:00000000 btn_wait
C:\Users\Magenta\AppData\Local\Temp\ccKXyMrW.s:2118   .bss.c.2100:00000000 c.2100
C:\Users\Magenta\AppData\Local\Temp\ccKXyMrW.s:2113   .bss.st.2098:00000000 st.2098
C:\Users\Magenta\AppData\Local\Temp\ccKXyMrW.s:2108   .bss.msk.2099:00000000 msk.2099
C:\Users\Magenta\AppData\Local\Temp\ccKXyMrW.s:499    .text.btn_wait_up:00000000 btn_wait_up
C:\Users\Magenta\AppData\Local\Temp\ccKXyMrW.s:545    .text.print_u:00000000 print_u
C:\Users\Magenta\AppData\Local\Temp\ccKXyMrW.s:696    .text.print_fq:00000000 print_fq
                            *COM*:00000037 generator
C:\Users\Magenta\AppData\Local\Temp\ccKXyMrW.s:2103   .progmem.data.__c.2136:00000000 __c.2136
C:\Users\Magenta\AppData\Local\Temp\ccKXyMrW.s:864    .text.print_on_off:00000000 print_on_off
C:\Users\Magenta\AppData\Local\Temp\ccKXyMrW.s:2098   .progmem.data.__c.2141:00000000 __c.2141
C:\Users\Magenta\AppData\Local\Temp\ccKXyMrW.s:2093   .progmem.data.__c.2143:00000000 __c.2143
C:\Users\Magenta\AppData\Local\Temp\ccKXyMrW.s:912    .text.input_fd:00000000 input_fd
C:\Users\Magenta\AppData\Local\Temp\ccKXyMrW.s:2088   .progmem.data.__c.2154:00000000 __c.2154
C:\Users\Magenta\AppData\Local\Temp\ccKXyMrW.s:2083   .progmem.data.__c.2156:00000000 __c.2156
C:\Users\Magenta\AppData\Local\Temp\ccKXyMrW.s:1194   .text.input_dc:00000000 input_dc
C:\Users\Magenta\AppData\Local\Temp\ccKXyMrW.s:2078   .progmem.data.__c.2165:00000000 __c.2165
C:\Users\Magenta\AppData\Local\Temp\ccKXyMrW.s:2073   .progmem.data.__c.2167:00000000 __c.2167
C:\Users\Magenta\AppData\Local\Temp\ccKXyMrW.s:1299   .text.input_t:00000000 input_t
C:\Users\Magenta\AppData\Local\Temp\ccKXyMrW.s:2068   .progmem.data.__c.2178:00000000 __c.2178
C:\Users\Magenta\AppData\Local\Temp\ccKXyMrW.s:2063   .progmem.data.__c.2180:00000000 __c.2180
C:\Users\Magenta\AppData\Local\Temp\ccKXyMrW.s:1518   .text.input_n:00000000 input_n
C:\Users\Magenta\AppData\Local\Temp\ccKXyMrW.s:2058   .progmem.data.__c.2189:00000000 __c.2189
C:\Users\Magenta\AppData\Local\Temp\ccKXyMrW.s:2053   .progmem.data.__c.2191:00000000 __c.2191
C:\Users\Magenta\AppData\Local\Temp\ccKXyMrW.s:2048   .progmem.data.__c.2193:00000000 __c.2193
C:\Users\Magenta\AppData\Local\Temp\ccKXyMrW.s:1678   .text.select_val:00000000 select_val
C:\Users\Magenta\AppData\Local\Temp\ccKXyMrW.s:1781   .text.input_trig:00000000 input_trig
C:\Users\Magenta\AppData\Local\Temp\ccKXyMrW.s:2043   .progmem.data.__c.2209:00000000 __c.2209
C:\Users\Magenta\AppData\Local\Temp\ccKXyMrW.s:2038   .progmem.data.__c.2211:00000000 __c.2211
C:\Users\Magenta\AppData\Local\Temp\ccKXyMrW.s:2033   .progmem.data.__c.2213:00000000 __c.2213
C:\Users\Magenta\AppData\Local\Temp\ccKXyMrW.s:2028   .progmem.data.__c.2215:00000000 __c.2215
C:\Users\Magenta\AppData\Local\Temp\ccKXyMrW.s:1840   .text.input_ext_sync:00000000 input_ext_sync
C:\Users\Magenta\AppData\Local\Temp\ccKXyMrW.s:2023   .progmem.data.__c.2220:00000000 __c.2220
C:\Users\Magenta\AppData\Local\Temp\ccKXyMrW.s:2018   .progmem.data.__c.2222:00000000 __c.2222
C:\Users\Magenta\AppData\Local\Temp\ccKXyMrW.s:2013   .progmem.data.__c.2224:00000000 __c.2224
C:\Users\Magenta\AppData\Local\Temp\ccKXyMrW.s:2008   .progmem.data.__c.2226:00000000 __c.2226
C:\Users\Magenta\AppData\Local\Temp\ccKXyMrW.s:1899   .text.input_hs:00000000 input_hs
C:\Users\Magenta\AppData\Local\Temp\ccKXyMrW.s:2003   .progmem.data.__c.2231:00000000 __c.2231
C:\Users\Magenta\AppData\Local\Temp\ccKXyMrW.s:1998   .progmem.data.__c.2233:00000000 __c.2233
C:\Users\Magenta\AppData\Local\Temp\ccKXyMrW.s:1993   .progmem.data.__c.2235:00000000 __c.2235
C:\Users\Magenta\AppData\Local\Temp\ccKXyMrW.s:1988   .progmem.data.__c.2237:00000000 __c.2237
C:\Users\Magenta\AppData\Local\Temp\ccKXyMrW.s:1983   .progmem.data.__c.2240:00000000 __c.2240

UNDEFINED SYMBOLS
lcd_clrscr
lcd_goto
lcd_putc
SerialPutChar
__udivmodsi4
__muluhisi3
pwm_start
__do_clear_bss
